
./output/mpu9250.shakti:     file format elf64-littleriscv


Disassembly of section .text.init:

0000000080000000 <_start>:
    80000000:	00000297          	auipc	t0,0x0
    80000004:	74828293          	addi	t0,t0,1864 # 80000748 <trap_entry>
    80000008:	30529073          	csrw	mtvec,t0
    8000000c:	42ad                	li	t0,11
    8000000e:	3002b073          	csrc	mstatus,t0
    80000012:	6285                	lui	t0,0x1
    80000014:	8882829b          	addiw	t0,t0,-1912
    80000018:	3042b073          	csrc	mie,t0
    8000001c:	0c002fb7          	lui	t6,0xc002
    80000020:	000e7e13          	andi	t3,t3,0
    80000024:	000e0e13          	mv	t3,t3
    80000028:	01cf8023          	sb	t3,0(t6) # c002000 <_free_space+0x400fcd8>
    8000002c:	01cf80a3          	sb	t3,1(t6)
    80000030:	01cf8123          	sb	t3,2(t6)
    80000034:	01cf81a3          	sb	t3,3(t6)
    80000038:	0c000fb7          	lui	t6,0xc000
    8000003c:	000e7e13          	andi	t3,t3,0
    80000040:	01cf8023          	sb	t3,0(t6) # c000000 <_free_space+0x400dcd8>
    80000044:	01cf80a3          	sb	t3,1(t6)
    80000048:	01cf8123          	sb	t3,2(t6)
    8000004c:	01cf81a3          	sb	t3,3(t6)
    80000050:	4081                	li	ra,0
    80000052:	4101                	li	sp,0
    80000054:	4181                	li	gp,0
    80000056:	4201                	li	tp,0
    80000058:	4281                	li	t0,0
    8000005a:	4301                	li	t1,0
    8000005c:	4381                	li	t2,0
    8000005e:	4401                	li	s0,0
    80000060:	4481                	li	s1,0
    80000062:	4501                	li	a0,0
    80000064:	4581                	li	a1,0
    80000066:	4601                	li	a2,0
    80000068:	4681                	li	a3,0
    8000006a:	4701                	li	a4,0
    8000006c:	4781                	li	a5,0
    8000006e:	4801                	li	a6,0
    80000070:	4881                	li	a7,0
    80000072:	4901                	li	s2,0
    80000074:	4981                	li	s3,0
    80000076:	4a01                	li	s4,0
    80000078:	4a81                	li	s5,0
    8000007a:	4b01                	li	s6,0
    8000007c:	4b81                	li	s7,0
    8000007e:	4c01                	li	s8,0
    80000080:	4c81                	li	s9,0
    80000082:	4d01                	li	s10,0
    80000084:	4d81                	li	s11,0
    80000086:	4e01                	li	t3,0
    80000088:	4e81                	li	t4,0
    8000008a:	4f01                	li	t5,0
    8000008c:	4f81                	li	t6,0
    8000008e:	00006197          	auipc	gp,0x6
    80000092:	6f218193          	addi	gp,gp,1778 # 80006780 <__global_pointer$>

0000000080000096 <init_bss>:
    80000096:	85818513          	addi	a0,gp,-1960 # 80005fd8 <u0_rcv_char>
    8000009a:	0000e597          	auipc	a1,0xe
    8000009e:	83a58593          	addi	a1,a1,-1990 # 8000d8d4 <isr_table+0xdc>
    800000a2:	4601                	li	a2,0
    800000a4:	c110                	sw	a2,0(a0)
    800000a6:	00b57463          	bgeu	a0,a1,800000ae <init_sbss>
    800000aa:	0511                	addi	a0,a0,4
    800000ac:	bfe5                	j	800000a4 <init_bss+0xe>

00000000800000ae <init_sbss>:
    800000ae:	83818513          	addi	a0,gp,-1992 # 80005fb8 <uart0_complete>
    800000b2:	85018593          	addi	a1,gp,-1968 # 80005fd0 <uart2_rcv_isr_count>
    800000b6:	4601                	li	a2,0
    800000b8:	c110                	sw	a2,0(a0)
    800000ba:	00b57463          	bgeu	a0,a1,800000c2 <init_sbss+0x14>
    800000be:	0511                	addi	a0,a0,4
    800000c0:	bfe5                	j	800000b8 <init_sbss+0xa>
    800000c2:	08000117          	auipc	sp,0x8000
    800000c6:	b3e10113          	addi	sp,sp,-1218 # 87fffc00 <__stack_pointer$>
    800000ca:	0000e217          	auipc	tp,0xe
    800000ce:	84d20213          	addi	tp,tp,-1971 # 8000d917 <__bss_end+0x3f>
    800000d2:	fc027213          	andi	tp,tp,-64
    800000d6:	1b10206f          	j	80002a86 <init>
    800000da:	a001                	j	800000da <init_sbss+0x2c>

Disassembly of section .text:

00000000800000e0 <read_mpu9250_register>:
    800000e0:	7139                	addi	sp,sp,-64
    800000e2:	fc06                	sd	ra,56(sp)
    800000e4:	f822                	sd	s0,48(sp)
    800000e6:	0080                	addi	s0,sp,64
    800000e8:	fca43c23          	sd	a0,-40(s0)
    800000ec:	87ae                	mv	a5,a1
    800000ee:	fcc43423          	sd	a2,-56(s0)
    800000f2:	fcd43023          	sd	a3,-64(s0)
    800000f6:	fcf40ba3          	sb	a5,-41(s0)
    800000fa:	fe0407a3          	sb	zero,-17(s0)
    800000fe:	fe040723          	sb	zero,-18(s0)
    80000102:	32000693          	li	a3,800
    80000106:	4601                	li	a2,0
    80000108:	0d000593          	li	a1,208
    8000010c:	fd843503          	ld	a0,-40(s0)
    80000110:	1c2020ef          	jal	ra,800022d2 <i2c_send_slave_address>
    80000114:	fc043783          	ld	a5,-64(s0)
    80000118:	0ff7f713          	andi	a4,a5,255
    8000011c:	fd744783          	lbu	a5,-41(s0)
    80000120:	863a                	mv	a2,a4
    80000122:	85be                	mv	a1,a5
    80000124:	fd843503          	ld	a0,-40(s0)
    80000128:	2e8020ef          	jal	ra,80002410 <i2c_write_data>
    8000012c:	fd843783          	ld	a5,-40(s0)
    80000130:	04500713          	li	a4,69
    80000134:	c798                	sw	a4,8(a5)
    80000136:	03200593          	li	a1,50
    8000013a:	06400513          	li	a0,100
    8000013e:	28d000ef          	jal	ra,80000bca <delay_loop>
    80000142:	fc043783          	ld	a5,-64(s0)
    80000146:	0ff7f793          	andi	a5,a5,255
    8000014a:	863e                	mv	a2,a5
    8000014c:	0d100593          	li	a1,209
    80000150:	fd843503          	ld	a0,-40(s0)
    80000154:	2bc020ef          	jal	ra,80002410 <i2c_write_data>
    80000158:	fc043783          	ld	a5,-64(s0)
    8000015c:	0ff7f713          	andi	a4,a5,255
    80000160:	fee40793          	addi	a5,s0,-18
    80000164:	863a                	mv	a2,a4
    80000166:	85be                	mv	a1,a5
    80000168:	fd843503          	ld	a0,-40(s0)
    8000016c:	338020ef          	jal	ra,800024a4 <i2c_read_data>
    80000170:	fd843783          	ld	a5,-40(s0)
    80000174:	04000713          	li	a4,64
    80000178:	c798                	sw	a4,8(a5)
    8000017a:	fc043783          	ld	a5,-64(s0)
    8000017e:	0ff7f713          	andi	a4,a5,255
    80000182:	fef40793          	addi	a5,s0,-17
    80000186:	863a                	mv	a2,a4
    80000188:	85be                	mv	a1,a5
    8000018a:	fd843503          	ld	a0,-40(s0)
    8000018e:	316020ef          	jal	ra,800024a4 <i2c_read_data>
    80000192:	fef44703          	lbu	a4,-17(s0)
    80000196:	fc843783          	ld	a5,-56(s0)
    8000019a:	00e78023          	sb	a4,0(a5)
    8000019e:	fd843783          	ld	a5,-40(s0)
    800001a2:	0c300713          	li	a4,195
    800001a6:	c798                	sw	a4,8(a5)
    800001a8:	03200593          	li	a1,50
    800001ac:	06400513          	li	a0,100
    800001b0:	21b000ef          	jal	ra,80000bca <delay_loop>
    800001b4:	4781                	li	a5,0
    800001b6:	853e                	mv	a0,a5
    800001b8:	70e2                	ld	ra,56(sp)
    800001ba:	7442                	ld	s0,48(sp)
    800001bc:	6121                	addi	sp,sp,64
    800001be:	8082                	ret

00000000800001c0 <read_mpu9250_registers>:
    800001c0:	715d                	addi	sp,sp,-80
    800001c2:	e486                	sd	ra,72(sp)
    800001c4:	e0a2                	sd	s0,64(sp)
    800001c6:	0880                	addi	s0,sp,80
    800001c8:	fca43c23          	sd	a0,-40(s0)
    800001cc:	87ae                	mv	a5,a1
    800001ce:	fcc43423          	sd	a2,-56(s0)
    800001d2:	fcd43023          	sd	a3,-64(s0)
    800001d6:	fae43c23          	sd	a4,-72(s0)
    800001da:	fcf40ba3          	sb	a5,-41(s0)
    800001de:	4785                	li	a5,1
    800001e0:	fef43423          	sd	a5,-24(s0)
    800001e4:	fe0403a3          	sb	zero,-25(s0)
    800001e8:	fe040323          	sb	zero,-26(s0)
    800001ec:	fd843783          	ld	a5,-40(s0)
    800001f0:	0c100713          	li	a4,193
    800001f4:	c798                	sw	a4,8(a5)
    800001f6:	fb843683          	ld	a3,-72(s0)
    800001fa:	4601                	li	a2,0
    800001fc:	0d000593          	li	a1,208
    80000200:	fd843503          	ld	a0,-40(s0)
    80000204:	0ce020ef          	jal	ra,800022d2 <i2c_send_slave_address>
    80000208:	fb843783          	ld	a5,-72(s0)
    8000020c:	0ff7f713          	andi	a4,a5,255
    80000210:	fd744783          	lbu	a5,-41(s0)
    80000214:	863a                	mv	a2,a4
    80000216:	85be                	mv	a1,a5
    80000218:	fd843503          	ld	a0,-40(s0)
    8000021c:	1f4020ef          	jal	ra,80002410 <i2c_write_data>
    80000220:	fd843783          	ld	a5,-40(s0)
    80000224:	04500713          	li	a4,69
    80000228:	c798                	sw	a4,8(a5)
    8000022a:	03200593          	li	a1,50
    8000022e:	06400513          	li	a0,100
    80000232:	199000ef          	jal	ra,80000bca <delay_loop>
    80000236:	fb843783          	ld	a5,-72(s0)
    8000023a:	0ff7f793          	andi	a5,a5,255
    8000023e:	863e                	mv	a2,a5
    80000240:	0d100593          	li	a1,209
    80000244:	fd843503          	ld	a0,-40(s0)
    80000248:	1c8020ef          	jal	ra,80002410 <i2c_write_data>
    8000024c:	fb843783          	ld	a5,-72(s0)
    80000250:	0ff7f713          	andi	a4,a5,255
    80000254:	fe740793          	addi	a5,s0,-25
    80000258:	863a                	mv	a2,a4
    8000025a:	85be                	mv	a1,a5
    8000025c:	fd843503          	ld	a0,-40(s0)
    80000260:	244020ef          	jal	ra,800024a4 <i2c_read_data>
    80000264:	a8a5                	j	800002dc <read_mpu9250_registers+0x11c>
    80000266:	fe843703          	ld	a4,-24(s0)
    8000026a:	fc043783          	ld	a5,-64(s0)
    8000026e:	00f71d63          	bne	a4,a5,80000288 <read_mpu9250_registers+0xc8>
    80000272:	00004517          	auipc	a0,0x4
    80000276:	61650513          	addi	a0,a0,1558 # 80004888 <__rodata_start>
    8000027a:	3d3000ef          	jal	ra,80000e4c <log_debug>
    8000027e:	fd843783          	ld	a5,-40(s0)
    80000282:	04000713          	li	a4,64
    80000286:	c798                	sw	a4,8(a5)
    80000288:	fb843783          	ld	a5,-72(s0)
    8000028c:	0ff7f713          	andi	a4,a5,255
    80000290:	fe640793          	addi	a5,s0,-26
    80000294:	863a                	mv	a2,a4
    80000296:	85be                	mv	a1,a5
    80000298:	fd843503          	ld	a0,-40(s0)
    8000029c:	208020ef          	jal	ra,800024a4 <i2c_read_data>
    800002a0:	fe644783          	lbu	a5,-26(s0)
    800002a4:	2781                	sext.w	a5,a5
    800002a6:	863e                	mv	a2,a5
    800002a8:	fe843583          	ld	a1,-24(s0)
    800002ac:	00004517          	auipc	a0,0x4
    800002b0:	5ec50513          	addi	a0,a0,1516 # 80004898 <__rodata_start+0x10>
    800002b4:	399000ef          	jal	ra,80000e4c <log_debug>
    800002b8:	fe644703          	lbu	a4,-26(s0)
    800002bc:	fc843783          	ld	a5,-56(s0)
    800002c0:	00e78023          	sb	a4,0(a5)
    800002c4:	fc843783          	ld	a5,-56(s0)
    800002c8:	0785                	addi	a5,a5,1
    800002ca:	fcf43423          	sd	a5,-56(s0)
    800002ce:	fe040323          	sb	zero,-26(s0)
    800002d2:	fe843783          	ld	a5,-24(s0)
    800002d6:	0785                	addi	a5,a5,1
    800002d8:	fef43423          	sd	a5,-24(s0)
    800002dc:	fe843703          	ld	a4,-24(s0)
    800002e0:	fc043783          	ld	a5,-64(s0)
    800002e4:	f8f761e3          	bltu	a4,a5,80000266 <read_mpu9250_registers+0xa6>
    800002e8:	00004517          	auipc	a0,0x4
    800002ec:	5c850513          	addi	a0,a0,1480 # 800048b0 <__rodata_start+0x28>
    800002f0:	35d000ef          	jal	ra,80000e4c <log_debug>
    800002f4:	fd843783          	ld	a5,-40(s0)
    800002f8:	0c300713          	li	a4,195
    800002fc:	c798                	sw	a4,8(a5)
    800002fe:	4781                	li	a5,0
    80000300:	853e                	mv	a0,a5
    80000302:	60a6                	ld	ra,72(sp)
    80000304:	6406                	ld	s0,64(sp)
    80000306:	6161                	addi	sp,sp,80
    80000308:	8082                	ret

000000008000030a <write_mpu9250_register>:
    8000030a:	1101                	addi	sp,sp,-32
    8000030c:	ec06                	sd	ra,24(sp)
    8000030e:	e822                	sd	s0,16(sp)
    80000310:	1000                	addi	s0,sp,32
    80000312:	fea43423          	sd	a0,-24(s0)
    80000316:	87ae                	mv	a5,a1
    80000318:	8736                	mv	a4,a3
    8000031a:	fef403a3          	sb	a5,-25(s0)
    8000031e:	87b2                	mv	a5,a2
    80000320:	fef42023          	sw	a5,-32(s0)
    80000324:	87ba                	mv	a5,a4
    80000326:	fef40323          	sb	a5,-26(s0)
    8000032a:	fe843783          	ld	a5,-24(s0)
    8000032e:	0c100713          	li	a4,193
    80000332:	c798                	sw	a4,8(a5)
    80000334:	03200593          	li	a1,50
    80000338:	06400513          	li	a0,100
    8000033c:	08f000ef          	jal	ra,80000bca <delay_loop>
    80000340:	fe644783          	lbu	a5,-26(s0)
    80000344:	86be                	mv	a3,a5
    80000346:	4601                	li	a2,0
    80000348:	0d000593          	li	a1,208
    8000034c:	fe843503          	ld	a0,-24(s0)
    80000350:	783010ef          	jal	ra,800022d2 <i2c_send_slave_address>
    80000354:	fe644703          	lbu	a4,-26(s0)
    80000358:	fe744783          	lbu	a5,-25(s0)
    8000035c:	863a                	mv	a2,a4
    8000035e:	85be                	mv	a1,a5
    80000360:	fe843503          	ld	a0,-24(s0)
    80000364:	0ac020ef          	jal	ra,80002410 <i2c_write_data>
    80000368:	fe042783          	lw	a5,-32(s0)
    8000036c:	85be                	mv	a1,a5
    8000036e:	00004517          	auipc	a0,0x4
    80000372:	56250513          	addi	a0,a0,1378 # 800048d0 <__rodata_start+0x48>
    80000376:	2d7000ef          	jal	ra,80000e4c <log_debug>
    8000037a:	fe042783          	lw	a5,-32(s0)
    8000037e:	0ff7f793          	andi	a5,a5,255
    80000382:	fe644703          	lbu	a4,-26(s0)
    80000386:	863a                	mv	a2,a4
    80000388:	85be                	mv	a1,a5
    8000038a:	fe843503          	ld	a0,-24(s0)
    8000038e:	082020ef          	jal	ra,80002410 <i2c_write_data>
    80000392:	fe843783          	ld	a5,-24(s0)
    80000396:	0c300713          	li	a4,195
    8000039a:	c798                	sw	a4,8(a5)
    8000039c:	03200593          	li	a1,50
    800003a0:	06400513          	li	a0,100
    800003a4:	027000ef          	jal	ra,80000bca <delay_loop>
    800003a8:	0001                	nop
    800003aa:	853e                	mv	a0,a5
    800003ac:	60e2                	ld	ra,24(sp)
    800003ae:	6442                	ld	s0,16(sp)
    800003b0:	6105                	addi	sp,sp,32
    800003b2:	8082                	ret

00000000800003b4 <CheckForDeviceId>:
    800003b4:	7179                	addi	sp,sp,-48
    800003b6:	f406                	sd	ra,40(sp)
    800003b8:	f022                	sd	s0,32(sp)
    800003ba:	1800                	addi	s0,sp,48
    800003bc:	fca43c23          	sd	a0,-40(s0)
    800003c0:	fcb43823          	sd	a1,-48(s0)
    800003c4:	57fd                	li	a5,-1
    800003c6:	fef407a3          	sb	a5,-17(s0)
    800003ca:	fef40793          	addi	a5,s0,-17
    800003ce:	fd043683          	ld	a3,-48(s0)
    800003d2:	863e                	mv	a2,a5
    800003d4:	07500593          	li	a1,117
    800003d8:	fd843503          	ld	a0,-40(s0)
    800003dc:	d05ff0ef          	jal	ra,800000e0 <read_mpu9250_register>
    800003e0:	fef44783          	lbu	a5,-17(s0)
    800003e4:	2781                	sext.w	a5,a5
    800003e6:	85be                	mv	a1,a5
    800003e8:	00004517          	auipc	a0,0x4
    800003ec:	50050513          	addi	a0,a0,1280 # 800048e8 <__rodata_start+0x60>
    800003f0:	25d000ef          	jal	ra,80000e4c <log_debug>
    800003f4:	fef44783          	lbu	a5,-17(s0)
    800003f8:	853e                	mv	a0,a5
    800003fa:	70a2                	ld	ra,40(sp)
    800003fc:	7402                	ld	s0,32(sp)
    800003fe:	6145                	addi	sp,sp,48
    80000400:	8082                	ret

0000000080000402 <ConfigureMultiChip>:
    80000402:	1101                	addi	sp,sp,-32
    80000404:	ec06                	sd	ra,24(sp)
    80000406:	e822                	sd	s0,16(sp)
    80000408:	1000                	addi	s0,sp,32
    8000040a:	fea43423          	sd	a0,-24(s0)
    8000040e:	feb43023          	sd	a1,-32(s0)
    80000412:	fe043783          	ld	a5,-32(s0)
    80000416:	0ff7f793          	andi	a5,a5,255
    8000041a:	86be                	mv	a3,a5
    8000041c:	4621                	li	a2,8
    8000041e:	45f1                	li	a1,28
    80000420:	fe843503          	ld	a0,-24(s0)
    80000424:	ee7ff0ef          	jal	ra,8000030a <write_mpu9250_register>
    80000428:	fe043783          	ld	a5,-32(s0)
    8000042c:	0ff7f793          	andi	a5,a5,255
    80000430:	86be                	mv	a3,a5
    80000432:	4621                	li	a2,8
    80000434:	45ed                	li	a1,27
    80000436:	fe843503          	ld	a0,-24(s0)
    8000043a:	ed1ff0ef          	jal	ra,8000030a <write_mpu9250_register>
    8000043e:	fe043783          	ld	a5,-32(s0)
    80000442:	0ff7f793          	andi	a5,a5,255
    80000446:	86be                	mv	a3,a5
    80000448:	4615                	li	a2,5
    8000044a:	45f5                	li	a1,29
    8000044c:	fe843503          	ld	a0,-24(s0)
    80000450:	ebbff0ef          	jal	ra,8000030a <write_mpu9250_register>
    80000454:	fe043783          	ld	a5,-32(s0)
    80000458:	0ff7f793          	andi	a5,a5,255
    8000045c:	86be                	mv	a3,a5
    8000045e:	4615                	li	a2,5
    80000460:	45e9                	li	a1,26
    80000462:	fe843503          	ld	a0,-24(s0)
    80000466:	ea5ff0ef          	jal	ra,8000030a <write_mpu9250_register>
    8000046a:	4781                	li	a5,0
    8000046c:	853e                	mv	a0,a5
    8000046e:	60e2                	ld	ra,24(sp)
    80000470:	6442                	ld	s0,16(sp)
    80000472:	6105                	addi	sp,sp,32
    80000474:	8082                	ret

0000000080000476 <ConfigureMagneto>:
    80000476:	1101                	addi	sp,sp,-32
    80000478:	ec06                	sd	ra,24(sp)
    8000047a:	e822                	sd	s0,16(sp)
    8000047c:	1000                	addi	s0,sp,32
    8000047e:	fea43423          	sd	a0,-24(s0)
    80000482:	feb43023          	sd	a1,-32(s0)
    80000486:	fe043783          	ld	a5,-32(s0)
    8000048a:	0ff7f793          	andi	a5,a5,255
    8000048e:	86be                	mv	a3,a5
    80000490:	4601                	li	a2,0
    80000492:	06a00593          	li	a1,106
    80000496:	fe843503          	ld	a0,-24(s0)
    8000049a:	e71ff0ef          	jal	ra,8000030a <write_mpu9250_register>
    8000049e:	fe043783          	ld	a5,-32(s0)
    800004a2:	0ff7f793          	andi	a5,a5,255
    800004a6:	86be                	mv	a3,a5
    800004a8:	4609                	li	a2,2
    800004aa:	03700593          	li	a1,55
    800004ae:	fe843503          	ld	a0,-24(s0)
    800004b2:	e59ff0ef          	jal	ra,8000030a <write_mpu9250_register>
    800004b6:	0001                	nop
    800004b8:	60e2                	ld	ra,24(sp)
    800004ba:	6442                	ld	s0,16(sp)
    800004bc:	6105                	addi	sp,sp,32
    800004be:	8082                	ret

00000000800004c0 <readMultiChip>:
    800004c0:	715d                	addi	sp,sp,-80
    800004c2:	e486                	sd	ra,72(sp)
    800004c4:	e0a2                	sd	s0,64(sp)
    800004c6:	0880                	addi	s0,sp,80
    800004c8:	faa43c23          	sd	a0,-72(s0)
    800004cc:	fab43823          	sd	a1,-80(s0)
    800004d0:	fc040793          	addi	a5,s0,-64
    800004d4:	fb043703          	ld	a4,-80(s0)
    800004d8:	46b9                	li	a3,14
    800004da:	863e                	mv	a2,a5
    800004dc:	03b00593          	li	a1,59
    800004e0:	fb843503          	ld	a0,-72(s0)
    800004e4:	cddff0ef          	jal	ra,800001c0 <read_mpu9250_registers>
    800004e8:	00004517          	auipc	a0,0x4
    800004ec:	41850513          	addi	a0,a0,1048 # 80004900 <__rodata_start+0x78>
    800004f0:	113000ef          	jal	ra,80000e02 <log_info>
    800004f4:	fe042623          	sw	zero,-20(s0)
    800004f8:	a02d                	j	80000522 <readMultiChip+0x62>
    800004fa:	fec42783          	lw	a5,-20(s0)
    800004fe:	ff040713          	addi	a4,s0,-16
    80000502:	97ba                	add	a5,a5,a4
    80000504:	fd07c783          	lbu	a5,-48(a5)
    80000508:	2781                	sext.w	a5,a5
    8000050a:	85be                	mv	a1,a5
    8000050c:	00004517          	auipc	a0,0x4
    80000510:	40c50513          	addi	a0,a0,1036 # 80004918 <__rodata_start+0x90>
    80000514:	0ef000ef          	jal	ra,80000e02 <log_info>
    80000518:	fec42783          	lw	a5,-20(s0)
    8000051c:	2785                	addiw	a5,a5,1
    8000051e:	fef42623          	sw	a5,-20(s0)
    80000522:	fec42783          	lw	a5,-20(s0)
    80000526:	0007871b          	sext.w	a4,a5
    8000052a:	47b5                	li	a5,13
    8000052c:	fce7d7e3          	bge	a5,a4,800004fa <readMultiChip+0x3a>
    80000530:	00004517          	auipc	a0,0x4
    80000534:	3f050513          	addi	a0,a0,1008 # 80004920 <__rodata_start+0x98>
    80000538:	0cb000ef          	jal	ra,80000e02 <log_info>
    8000053c:	fc044783          	lbu	a5,-64(s0)
    80000540:	2781                	sext.w	a5,a5
    80000542:	0087979b          	slliw	a5,a5,0x8
    80000546:	0007871b          	sext.w	a4,a5
    8000054a:	fc144783          	lbu	a5,-63(s0)
    8000054e:	2781                	sext.w	a5,a5
    80000550:	8fd9                	or	a5,a5,a4
    80000552:	fef42423          	sw	a5,-24(s0)
    80000556:	fc244783          	lbu	a5,-62(s0)
    8000055a:	2781                	sext.w	a5,a5
    8000055c:	0087979b          	slliw	a5,a5,0x8
    80000560:	0007871b          	sext.w	a4,a5
    80000564:	fc344783          	lbu	a5,-61(s0)
    80000568:	2781                	sext.w	a5,a5
    8000056a:	8fd9                	or	a5,a5,a4
    8000056c:	fef42223          	sw	a5,-28(s0)
    80000570:	fc444783          	lbu	a5,-60(s0)
    80000574:	2781                	sext.w	a5,a5
    80000576:	0087979b          	slliw	a5,a5,0x8
    8000057a:	0007871b          	sext.w	a4,a5
    8000057e:	fc544783          	lbu	a5,-59(s0)
    80000582:	2781                	sext.w	a5,a5
    80000584:	8fd9                	or	a5,a5,a4
    80000586:	fef42023          	sw	a5,-32(s0)
    8000058a:	fc844783          	lbu	a5,-56(s0)
    8000058e:	2781                	sext.w	a5,a5
    80000590:	0087979b          	slliw	a5,a5,0x8
    80000594:	0007871b          	sext.w	a4,a5
    80000598:	fc944783          	lbu	a5,-55(s0)
    8000059c:	2781                	sext.w	a5,a5
    8000059e:	8fd9                	or	a5,a5,a4
    800005a0:	fcf42e23          	sw	a5,-36(s0)
    800005a4:	fca44783          	lbu	a5,-54(s0)
    800005a8:	2781                	sext.w	a5,a5
    800005aa:	0087979b          	slliw	a5,a5,0x8
    800005ae:	0007871b          	sext.w	a4,a5
    800005b2:	fcb44783          	lbu	a5,-53(s0)
    800005b6:	2781                	sext.w	a5,a5
    800005b8:	8fd9                	or	a5,a5,a4
    800005ba:	fcf42c23          	sw	a5,-40(s0)
    800005be:	fcc44783          	lbu	a5,-52(s0)
    800005c2:	2781                	sext.w	a5,a5
    800005c4:	0087979b          	slliw	a5,a5,0x8
    800005c8:	0007871b          	sext.w	a4,a5
    800005cc:	fcd44783          	lbu	a5,-51(s0)
    800005d0:	2781                	sext.w	a5,a5
    800005d2:	8fd9                	or	a5,a5,a4
    800005d4:	fcf42a23          	sw	a5,-44(s0)
    800005d8:	fe842783          	lw	a5,-24(s0)
    800005dc:	85be                	mv	a1,a5
    800005de:	00004517          	auipc	a0,0x4
    800005e2:	34a50513          	addi	a0,a0,842 # 80004928 <__rodata_start+0xa0>
    800005e6:	01d000ef          	jal	ra,80000e02 <log_info>
    800005ea:	fe442783          	lw	a5,-28(s0)
    800005ee:	85be                	mv	a1,a5
    800005f0:	00004517          	auipc	a0,0x4
    800005f4:	34850513          	addi	a0,a0,840 # 80004938 <__rodata_start+0xb0>
    800005f8:	00b000ef          	jal	ra,80000e02 <log_info>
    800005fc:	fe042783          	lw	a5,-32(s0)
    80000600:	85be                	mv	a1,a5
    80000602:	00004517          	auipc	a0,0x4
    80000606:	34650513          	addi	a0,a0,838 # 80004948 <__rodata_start+0xc0>
    8000060a:	7f8000ef          	jal	ra,80000e02 <log_info>
    8000060e:	fdc42783          	lw	a5,-36(s0)
    80000612:	85be                	mv	a1,a5
    80000614:	00004517          	auipc	a0,0x4
    80000618:	34c50513          	addi	a0,a0,844 # 80004960 <__rodata_start+0xd8>
    8000061c:	7e6000ef          	jal	ra,80000e02 <log_info>
    80000620:	fd842783          	lw	a5,-40(s0)
    80000624:	85be                	mv	a1,a5
    80000626:	00004517          	auipc	a0,0x4
    8000062a:	34a50513          	addi	a0,a0,842 # 80004970 <__rodata_start+0xe8>
    8000062e:	7d4000ef          	jal	ra,80000e02 <log_info>
    80000632:	fd442783          	lw	a5,-44(s0)
    80000636:	85be                	mv	a1,a5
    80000638:	00004517          	auipc	a0,0x4
    8000063c:	34850513          	addi	a0,a0,840 # 80004980 <__rodata_start+0xf8>
    80000640:	7c2000ef          	jal	ra,80000e02 <log_info>
    80000644:	4781                	li	a5,0
    80000646:	853e                	mv	a0,a5
    80000648:	60a6                	ld	ra,72(sp)
    8000064a:	6406                	ld	s0,64(sp)
    8000064c:	6161                	addi	sp,sp,80
    8000064e:	8082                	ret

0000000080000650 <main>:
    80000650:	1101                	addi	sp,sp,-32
    80000652:	ec06                	sd	ra,24(sp)
    80000654:	e822                	sd	s0,16(sp)
    80000656:	1000                	addi	s0,sp,32
    80000658:	1f400793          	li	a5,500
    8000065c:	fef43423          	sd	a5,-24(s0)
    80000660:	00004517          	auipc	a0,0x4
    80000664:	33050513          	addi	a0,a0,816 # 80004990 <__rodata_start+0x108>
    80000668:	7e4000ef          	jal	ra,80000e4c <log_debug>
    8000066c:	686010ef          	jal	ra,80001cf2 <i2c_init>
    80000670:	0000d797          	auipc	a5,0xd
    80000674:	fb878793          	addi	a5,a5,-72 # 8000d628 <i2c_instance>
    80000678:	639c                	ld	a5,0(a5)
    8000067a:	4625                	li	a2,9
    8000067c:	45e1                	li	a1,24
    8000067e:	853e                	mv	a0,a5
    80000680:	6d0010ef          	jal	ra,80001d50 <config_i2c>
    80000684:	87aa                	mv	a5,a0
    80000686:	cb89                	beqz	a5,80000698 <main+0x48>
    80000688:	00004517          	auipc	a0,0x4
    8000068c:	31850513          	addi	a0,a0,792 # 800049a0 <__rodata_start+0x118>
    80000690:	02b000ef          	jal	ra,80000eba <log_error>
    80000694:	57fd                	li	a5,-1
    80000696:	a055                	j	8000073a <main+0xea>
    80000698:	00004517          	auipc	a0,0x4
    8000069c:	33050513          	addi	a0,a0,816 # 800049c8 <__rodata_start+0x140>
    800006a0:	762000ef          	jal	ra,80000e02 <log_info>
    800006a4:	0000d797          	auipc	a5,0xd
    800006a8:	f8478793          	addi	a5,a5,-124 # 8000d628 <i2c_instance>
    800006ac:	639c                	ld	a5,0(a5)
    800006ae:	fe843583          	ld	a1,-24(s0)
    800006b2:	853e                	mv	a0,a5
    800006b4:	d01ff0ef          	jal	ra,800003b4 <CheckForDeviceId>
    800006b8:	87aa                	mv	a5,a0
    800006ba:	873e                	mv	a4,a5
    800006bc:	07100793          	li	a5,113
    800006c0:	04f71363          	bne	a4,a5,80000706 <main+0xb6>
    800006c4:	00004517          	auipc	a0,0x4
    800006c8:	33450513          	addi	a0,a0,820 # 800049f8 <__rodata_start+0x170>
    800006cc:	736000ef          	jal	ra,80000e02 <log_info>
    800006d0:	0000d797          	auipc	a5,0xd
    800006d4:	f5878793          	addi	a5,a5,-168 # 8000d628 <i2c_instance>
    800006d8:	639c                	ld	a5,0(a5)
    800006da:	fe843703          	ld	a4,-24(s0)
    800006de:	0ff77713          	andi	a4,a4,255
    800006e2:	86ba                	mv	a3,a4
    800006e4:	4605                	li	a2,1
    800006e6:	06b00593          	li	a1,107
    800006ea:	853e                	mv	a0,a5
    800006ec:	c1fff0ef          	jal	ra,8000030a <write_mpu9250_register>
    800006f0:	0000d797          	auipc	a5,0xd
    800006f4:	f3878793          	addi	a5,a5,-200 # 8000d628 <i2c_instance>
    800006f8:	639c                	ld	a5,0(a5)
    800006fa:	fe843583          	ld	a1,-24(s0)
    800006fe:	853e                	mv	a0,a5
    80000700:	d03ff0ef          	jal	ra,80000402 <ConfigureMultiChip>
    80000704:	a809                	j	80000716 <main+0xc6>
    80000706:	00004517          	auipc	a0,0x4
    8000070a:	31250513          	addi	a0,a0,786 # 80004a18 <__rodata_start+0x190>
    8000070e:	7ac000ef          	jal	ra,80000eba <log_error>
    80000712:	57fd                	li	a5,-1
    80000714:	a01d                	j	8000073a <main+0xea>
    80000716:	0000d797          	auipc	a5,0xd
    8000071a:	f1278793          	addi	a5,a5,-238 # 8000d628 <i2c_instance>
    8000071e:	639c                	ld	a5,0(a5)
    80000720:	fe843583          	ld	a1,-24(s0)
    80000724:	853e                	mv	a0,a5
    80000726:	d9bff0ef          	jal	ra,800004c0 <readMultiChip>
    8000072a:	3e800593          	li	a1,1000
    8000072e:	6785                	lui	a5,0x1
    80000730:	38878513          	addi	a0,a5,904 # 1388 <_tbss_end+0x1388>
    80000734:	496000ef          	jal	ra,80000bca <delay_loop>
    80000738:	bff9                	j	80000716 <main+0xc6>
    8000073a:	853e                	mv	a0,a5
    8000073c:	60e2                	ld	ra,24(sp)
    8000073e:	6442                	ld	s0,16(sp)
    80000740:	6105                	addi	sp,sp,32
    80000742:	8082                	ret
    80000744:	0000                	unimp
	...

0000000080000748 <trap_entry>:
    80000748:	7111                	addi	sp,sp,-256
    8000074a:	0001                	nop
    8000074c:	00000013          	nop
    80000750:	e406                	sd	ra,8(sp)
    80000752:	e80a                	sd	sp,16(sp)
    80000754:	ec0e                	sd	gp,24(sp)
    80000756:	f012                	sd	tp,32(sp)
    80000758:	f416                	sd	t0,40(sp)
    8000075a:	f81a                	sd	t1,48(sp)
    8000075c:	fc1e                	sd	t2,56(sp)
    8000075e:	e0a2                	sd	s0,64(sp)
    80000760:	e4a6                	sd	s1,72(sp)
    80000762:	e8aa                	sd	a0,80(sp)
    80000764:	ecae                	sd	a1,88(sp)
    80000766:	f0b2                	sd	a2,96(sp)
    80000768:	f4b6                	sd	a3,104(sp)
    8000076a:	f8ba                	sd	a4,112(sp)
    8000076c:	fcbe                	sd	a5,120(sp)
    8000076e:	e142                	sd	a6,128(sp)
    80000770:	e546                	sd	a7,136(sp)
    80000772:	e94a                	sd	s2,144(sp)
    80000774:	ed4e                	sd	s3,152(sp)
    80000776:	f152                	sd	s4,160(sp)
    80000778:	f556                	sd	s5,168(sp)
    8000077a:	f95a                	sd	s6,176(sp)
    8000077c:	fd5e                	sd	s7,184(sp)
    8000077e:	e1e2                	sd	s8,192(sp)
    80000780:	e5e6                	sd	s9,200(sp)
    80000782:	e9ea                	sd	s10,208(sp)
    80000784:	edee                	sd	s11,216(sp)
    80000786:	f1f2                	sd	t3,224(sp)
    80000788:	f5f6                	sd	t4,232(sp)
    8000078a:	f9fa                	sd	t5,240(sp)
    8000078c:	fdfe                	sd	t6,248(sp)
    8000078e:	34202573          	csrr	a0,mcause
    80000792:	341025f3          	csrr	a1,mepc
    80000796:	860a                	mv	a2,sp
    80000798:	568000ef          	jal	ra,80000d00 <handle_trap>
    8000079c:	34151073          	csrw	mepc,a0
    800007a0:	60a2                	ld	ra,8(sp)
    800007a2:	6142                	ld	sp,16(sp)
    800007a4:	61e2                	ld	gp,24(sp)
    800007a6:	7202                	ld	tp,32(sp)
    800007a8:	72a2                	ld	t0,40(sp)
    800007aa:	7342                	ld	t1,48(sp)
    800007ac:	73e2                	ld	t2,56(sp)
    800007ae:	6406                	ld	s0,64(sp)
    800007b0:	64a6                	ld	s1,72(sp)
    800007b2:	6546                	ld	a0,80(sp)
    800007b4:	65e6                	ld	a1,88(sp)
    800007b6:	7606                	ld	a2,96(sp)
    800007b8:	76a6                	ld	a3,104(sp)
    800007ba:	7746                	ld	a4,112(sp)
    800007bc:	77e6                	ld	a5,120(sp)
    800007be:	680a                	ld	a6,128(sp)
    800007c0:	68aa                	ld	a7,136(sp)
    800007c2:	694a                	ld	s2,144(sp)
    800007c4:	69ea                	ld	s3,152(sp)
    800007c6:	7a0a                	ld	s4,160(sp)
    800007c8:	7aaa                	ld	s5,168(sp)
    800007ca:	7b4a                	ld	s6,176(sp)
    800007cc:	7bea                	ld	s7,184(sp)
    800007ce:	6c0e                	ld	s8,192(sp)
    800007d0:	6cae                	ld	s9,200(sp)
    800007d2:	6d4e                	ld	s10,208(sp)
    800007d4:	6dee                	ld	s11,216(sp)
    800007d6:	7e0e                	ld	t3,224(sp)
    800007d8:	7eae                	ld	t4,232(sp)
    800007da:	7f4e                	ld	t5,240(sp)
    800007dc:	7fee                	ld	t6,248(sp)
    800007de:	6111                	addi	sp,sp,256
    800007e0:	30200073          	mret
	...

00000000800007e6 <waitfor>:
    800007e6:	7179                	addi	sp,sp,-48
    800007e8:	f422                	sd	s0,40(sp)
    800007ea:	1800                	addi	s0,sp,48
    800007ec:	87aa                	mv	a5,a0
    800007ee:	fcf42e23          	sw	a5,-36(s0)
    800007f2:	fe042623          	sw	zero,-20(s0)
    800007f6:	0001                	nop
    800007f8:	fec42783          	lw	a5,-20(s0)
    800007fc:	0017871b          	addiw	a4,a5,1
    80000800:	fee42623          	sw	a4,-20(s0)
    80000804:	fdc42703          	lw	a4,-36(s0)
    80000808:	2701                	sext.w	a4,a4
    8000080a:	fee7e7e3          	bltu	a5,a4,800007f8 <waitfor+0x12>
    8000080e:	0001                	nop
    80000810:	0001                	nop
    80000812:	7422                	ld	s0,40(sp)
    80000814:	6145                	addi	sp,sp,48
    80000816:	8082                	ret

0000000080000818 <delay>:
    80000818:	7179                	addi	sp,sp,-48
    8000081a:	f422                	sd	s0,40(sp)
    8000081c:	1800                	addi	s0,sp,48
    8000081e:	fca43c23          	sd	a0,-40(s0)
    80000822:	fd843703          	ld	a4,-40(s0)
    80000826:	3e800793          	li	a5,1000
    8000082a:	02f707b3          	mul	a5,a4,a5
    8000082e:	fef43423          	sd	a5,-24(s0)
    80000832:	a829                	j	8000084c <delay+0x34>
    80000834:	3e800793          	li	a5,1000
    80000838:	fef43023          	sd	a5,-32(s0)
    8000083c:	0001                	nop
    8000083e:	fe043783          	ld	a5,-32(s0)
    80000842:	fff78713          	addi	a4,a5,-1
    80000846:	fee43023          	sd	a4,-32(s0)
    8000084a:	fbf5                	bnez	a5,8000083e <delay+0x26>
    8000084c:	fe843783          	ld	a5,-24(s0)
    80000850:	fff78713          	addi	a4,a5,-1
    80000854:	fee43423          	sd	a4,-24(s0)
    80000858:	fff1                	bnez	a5,80000834 <delay+0x1c>
    8000085a:	0001                	nop
    8000085c:	0001                	nop
    8000085e:	7422                	ld	s0,40(sp)
    80000860:	6145                	addi	sp,sp,48
    80000862:	8082                	ret

0000000080000864 <pow_10>:
    80000864:	7179                	addi	sp,sp,-48
    80000866:	f406                	sd	ra,40(sp)
    80000868:	f022                	sd	s0,32(sp)
    8000086a:	1800                	addi	s0,sp,48
    8000086c:	87aa                	mv	a5,a0
    8000086e:	fcf42e23          	sw	a5,-36(s0)
    80000872:	4785                	li	a5,1
    80000874:	fef42623          	sw	a5,-20(s0)
    80000878:	fe042423          	sw	zero,-24(s0)
    8000087c:	a005                	j	8000089c <pow_10+0x38>
    8000087e:	fec42703          	lw	a4,-20(s0)
    80000882:	87ba                	mv	a5,a4
    80000884:	0027979b          	slliw	a5,a5,0x2
    80000888:	9fb9                	addw	a5,a5,a4
    8000088a:	0017979b          	slliw	a5,a5,0x1
    8000088e:	fef42623          	sw	a5,-20(s0)
    80000892:	fe842783          	lw	a5,-24(s0)
    80000896:	2785                	addiw	a5,a5,1
    80000898:	fef42423          	sw	a5,-24(s0)
    8000089c:	fe842703          	lw	a4,-24(s0)
    800008a0:	fdc42783          	lw	a5,-36(s0)
    800008a4:	2701                	sext.w	a4,a4
    800008a6:	2781                	sext.w	a5,a5
    800008a8:	fcf76be3          	bltu	a4,a5,8000087e <pow_10+0x1a>
    800008ac:	fec42783          	lw	a5,-20(s0)
    800008b0:	853e                	mv	a0,a5
    800008b2:	509030ef          	jal	ra,800045ba <__floatunsisf>
    800008b6:	87aa                	mv	a5,a0
    800008b8:	853e                	mv	a0,a5
    800008ba:	70a2                	ld	ra,40(sp)
    800008bc:	7402                	ld	s0,32(sp)
    800008be:	6145                	addi	sp,sp,48
    800008c0:	8082                	ret

00000000800008c2 <reverse>:
    800008c2:	7179                	addi	sp,sp,-48
    800008c4:	f422                	sd	s0,40(sp)
    800008c6:	1800                	addi	s0,sp,48
    800008c8:	fca43c23          	sd	a0,-40(s0)
    800008cc:	87ae                	mv	a5,a1
    800008ce:	fcf42a23          	sw	a5,-44(s0)
    800008d2:	fe042623          	sw	zero,-20(s0)
    800008d6:	fd442783          	lw	a5,-44(s0)
    800008da:	37fd                	addiw	a5,a5,-1
    800008dc:	fef42423          	sw	a5,-24(s0)
    800008e0:	a899                	j	80000936 <reverse+0x74>
    800008e2:	fec42783          	lw	a5,-20(s0)
    800008e6:	fd843703          	ld	a4,-40(s0)
    800008ea:	97ba                	add	a5,a5,a4
    800008ec:	0007c783          	lbu	a5,0(a5)
    800008f0:	fef403a3          	sb	a5,-25(s0)
    800008f4:	fe842783          	lw	a5,-24(s0)
    800008f8:	fd843703          	ld	a4,-40(s0)
    800008fc:	973e                	add	a4,a4,a5
    800008fe:	fec42783          	lw	a5,-20(s0)
    80000902:	fd843683          	ld	a3,-40(s0)
    80000906:	97b6                	add	a5,a5,a3
    80000908:	00074703          	lbu	a4,0(a4)
    8000090c:	00e78023          	sb	a4,0(a5)
    80000910:	fe842783          	lw	a5,-24(s0)
    80000914:	fd843703          	ld	a4,-40(s0)
    80000918:	97ba                	add	a5,a5,a4
    8000091a:	fe744703          	lbu	a4,-25(s0)
    8000091e:	00e78023          	sb	a4,0(a5)
    80000922:	fec42783          	lw	a5,-20(s0)
    80000926:	2785                	addiw	a5,a5,1
    80000928:	fef42623          	sw	a5,-20(s0)
    8000092c:	fe842783          	lw	a5,-24(s0)
    80000930:	37fd                	addiw	a5,a5,-1
    80000932:	fef42423          	sw	a5,-24(s0)
    80000936:	fec42703          	lw	a4,-20(s0)
    8000093a:	fe842783          	lw	a5,-24(s0)
    8000093e:	2701                	sext.w	a4,a4
    80000940:	2781                	sext.w	a5,a5
    80000942:	faf740e3          	blt	a4,a5,800008e2 <reverse+0x20>
    80000946:	0001                	nop
    80000948:	0001                	nop
    8000094a:	7422                	ld	s0,40(sp)
    8000094c:	6145                	addi	sp,sp,48
    8000094e:	8082                	ret

0000000080000950 <int_to_string>:
    80000950:	7179                	addi	sp,sp,-48
    80000952:	f406                	sd	ra,40(sp)
    80000954:	f022                	sd	s0,32(sp)
    80000956:	1800                	addi	s0,sp,48
    80000958:	87aa                	mv	a5,a0
    8000095a:	fcb43823          	sd	a1,-48(s0)
    8000095e:	8732                	mv	a4,a2
    80000960:	fcf42e23          	sw	a5,-36(s0)
    80000964:	87ba                	mv	a5,a4
    80000966:	fcf42c23          	sw	a5,-40(s0)
    8000096a:	fe042623          	sw	zero,-20(s0)
    8000096e:	a081                	j	800009ae <int_to_string+0x5e>
    80000970:	fdc42703          	lw	a4,-36(s0)
    80000974:	47a9                	li	a5,10
    80000976:	02f767bb          	remw	a5,a4,a5
    8000097a:	2781                	sext.w	a5,a5
    8000097c:	0ff7f713          	andi	a4,a5,255
    80000980:	fec46783          	lwu	a5,-20(s0)
    80000984:	fd043683          	ld	a3,-48(s0)
    80000988:	97b6                	add	a5,a5,a3
    8000098a:	0307071b          	addiw	a4,a4,48
    8000098e:	0ff77713          	andi	a4,a4,255
    80000992:	00e78023          	sb	a4,0(a5)
    80000996:	fec42783          	lw	a5,-20(s0)
    8000099a:	2785                	addiw	a5,a5,1
    8000099c:	fef42623          	sw	a5,-20(s0)
    800009a0:	fdc42703          	lw	a4,-36(s0)
    800009a4:	47a9                	li	a5,10
    800009a6:	02f747bb          	divw	a5,a4,a5
    800009aa:	fcf42e23          	sw	a5,-36(s0)
    800009ae:	fdc42783          	lw	a5,-36(s0)
    800009b2:	2781                	sext.w	a5,a5
    800009b4:	ffd5                	bnez	a5,80000970 <int_to_string+0x20>
    800009b6:	a839                	j	800009d4 <int_to_string+0x84>
    800009b8:	fec46783          	lwu	a5,-20(s0)
    800009bc:	fd043703          	ld	a4,-48(s0)
    800009c0:	97ba                	add	a5,a5,a4
    800009c2:	03000713          	li	a4,48
    800009c6:	00e78023          	sb	a4,0(a5)
    800009ca:	fec42783          	lw	a5,-20(s0)
    800009ce:	2785                	addiw	a5,a5,1
    800009d0:	fef42623          	sw	a5,-20(s0)
    800009d4:	fec42703          	lw	a4,-20(s0)
    800009d8:	fd842783          	lw	a5,-40(s0)
    800009dc:	2701                	sext.w	a4,a4
    800009de:	2781                	sext.w	a5,a5
    800009e0:	fcf76ce3          	bltu	a4,a5,800009b8 <int_to_string+0x68>
    800009e4:	fec42783          	lw	a5,-20(s0)
    800009e8:	85be                	mv	a1,a5
    800009ea:	fd043503          	ld	a0,-48(s0)
    800009ee:	ed5ff0ef          	jal	ra,800008c2 <reverse>
    800009f2:	fec46783          	lwu	a5,-20(s0)
    800009f6:	fd043703          	ld	a4,-48(s0)
    800009fa:	97ba                	add	a5,a5,a4
    800009fc:	00078023          	sb	zero,0(a5)
    80000a00:	fec42783          	lw	a5,-20(s0)
    80000a04:	853e                	mv	a0,a5
    80000a06:	70a2                	ld	ra,40(sp)
    80000a08:	7402                	ld	s0,32(sp)
    80000a0a:	6145                	addi	sp,sp,48
    80000a0c:	8082                	ret

0000000080000a0e <ftoa>:
    80000a0e:	715d                	addi	sp,sp,-80
    80000a10:	e486                	sd	ra,72(sp)
    80000a12:	e0a2                	sd	s0,64(sp)
    80000a14:	0880                	addi	s0,sp,80
    80000a16:	faa42e23          	sw	a0,-68(s0)
    80000a1a:	fab43823          	sd	a1,-80(s0)
    80000a1e:	87b2                	mv	a5,a2
    80000a20:	faf42c23          	sw	a5,-72(s0)
    80000a24:	fe042623          	sw	zero,-20(s0)
    80000a28:	fc043023          	sd	zero,-64(s0)
    80000a2c:	fc043423          	sd	zero,-56(s0)
    80000a30:	fc043823          	sd	zero,-48(s0)
    80000a34:	fc042c23          	sw	zero,-40(s0)
    80000a38:	fc041e23          	sh	zero,-36(s0)
    80000a3c:	fbc42503          	lw	a0,-68(s0)
    80000a40:	42f030ef          	jal	ra,8000466e <__extendsfdf2>
    80000a44:	872a                	mv	a4,a0
    80000a46:	00004797          	auipc	a5,0x4
    80000a4a:	01278793          	addi	a5,a5,18 # 80004a58 <__rodata_start+0x1d0>
    80000a4e:	638c                	ld	a1,0(a5)
    80000a50:	853a                	mv	a0,a4
    80000a52:	0be030ef          	jal	ra,80003b10 <__adddf3>
    80000a56:	87aa                	mv	a5,a0
    80000a58:	853e                	mv	a0,a5
    80000a5a:	483030ef          	jal	ra,800046dc <__truncdfsf2>
    80000a5e:	87aa                	mv	a5,a0
    80000a60:	faf42e23          	sw	a5,-68(s0)
    80000a64:	fbc42503          	lw	a0,-68(s0)
    80000a68:	219030ef          	jal	ra,80004480 <__fixsfsi>
    80000a6c:	87aa                	mv	a5,a0
    80000a6e:	fef42423          	sw	a5,-24(s0)
    80000a72:	fe842783          	lw	a5,-24(s0)
    80000a76:	853e                	mv	a0,a5
    80000a78:	275030ef          	jal	ra,800044ec <__floatsisf>
    80000a7c:	87aa                	mv	a5,a0
    80000a7e:	85be                	mv	a1,a5
    80000a80:	fbc42503          	lw	a0,-68(s0)
    80000a84:	69e030ef          	jal	ra,80004122 <__subsf3>
    80000a88:	87aa                	mv	a5,a0
    80000a8a:	fef42223          	sw	a5,-28(s0)
    80000a8e:	fe042023          	sw	zero,-32(s0)
    80000a92:	00000593          	li	a1,0
    80000a96:	fbc42503          	lw	a0,-68(s0)
    80000a9a:	416030ef          	jal	ra,80003eb0 <__lesf2>
    80000a9e:	87aa                	mv	a5,a0
    80000aa0:	0007de63          	bgez	a5,80000abc <ftoa+0xae>
    80000aa4:	fe042783          	lw	a5,-32(s0)
    80000aa8:	fb043703          	ld	a4,-80(s0)
    80000aac:	97ba                	add	a5,a5,a4
    80000aae:	02d00713          	li	a4,45
    80000ab2:	00e78023          	sb	a4,0(a5)
    80000ab6:	4785                	li	a5,1
    80000ab8:	fef42023          	sw	a5,-32(s0)
    80000abc:	fe842783          	lw	a5,-24(s0)
    80000ac0:	2781                	sext.w	a5,a5
    80000ac2:	e385                	bnez	a5,80000ae2 <ftoa+0xd4>
    80000ac4:	fe042783          	lw	a5,-32(s0)
    80000ac8:	fb043703          	ld	a4,-80(s0)
    80000acc:	97ba                	add	a5,a5,a4
    80000ace:	03000713          	li	a4,48
    80000ad2:	00e78023          	sb	a4,0(a5)
    80000ad6:	fe042783          	lw	a5,-32(s0)
    80000ada:	2785                	addiw	a5,a5,1
    80000adc:	fef42023          	sw	a5,-32(s0)
    80000ae0:	a099                	j	80000b26 <ftoa+0x118>
    80000ae2:	fe842783          	lw	a5,-24(s0)
    80000ae6:	2781                	sext.w	a5,a5
    80000ae8:	0007d863          	bgez	a5,80000af8 <ftoa+0xea>
    80000aec:	fe842783          	lw	a5,-24(s0)
    80000af0:	40f007bb          	negw	a5,a5
    80000af4:	fef42423          	sw	a5,-24(s0)
    80000af8:	fc040713          	addi	a4,s0,-64
    80000afc:	fe842783          	lw	a5,-24(s0)
    80000b00:	4601                	li	a2,0
    80000b02:	85ba                	mv	a1,a4
    80000b04:	853e                	mv	a0,a5
    80000b06:	e4bff0ef          	jal	ra,80000950 <int_to_string>
    80000b0a:	87aa                	mv	a5,a0
    80000b0c:	fef42623          	sw	a5,-20(s0)
    80000b10:	fe042783          	lw	a5,-32(s0)
    80000b14:	fb043703          	ld	a4,-80(s0)
    80000b18:	97ba                	add	a5,a5,a4
    80000b1a:	fc040713          	addi	a4,s0,-64
    80000b1e:	85ba                	mv	a1,a4
    80000b20:	853e                	mv	a0,a5
    80000b22:	4c7030ef          	jal	ra,800047e8 <strcpy>
    80000b26:	fec42703          	lw	a4,-20(s0)
    80000b2a:	fe042783          	lw	a5,-32(s0)
    80000b2e:	9fb9                	addw	a5,a5,a4
    80000b30:	fef42623          	sw	a5,-20(s0)
    80000b34:	fb842783          	lw	a5,-72(s0)
    80000b38:	2781                	sext.w	a5,a5
    80000b3a:	c3d9                	beqz	a5,80000bc0 <ftoa+0x1b2>
    80000b3c:	fec42783          	lw	a5,-20(s0)
    80000b40:	fb043703          	ld	a4,-80(s0)
    80000b44:	97ba                	add	a5,a5,a4
    80000b46:	02e00713          	li	a4,46
    80000b4a:	00e78023          	sb	a4,0(a5)
    80000b4e:	00000593          	li	a1,0
    80000b52:	fe442503          	lw	a0,-28(s0)
    80000b56:	35a030ef          	jal	ra,80003eb0 <__lesf2>
    80000b5a:	87aa                	mv	a5,a0
    80000b5c:	0007da63          	bgez	a5,80000b70 <ftoa+0x162>
    80000b60:	fe442703          	lw	a4,-28(s0)
    80000b64:	800007b7          	lui	a5,0x80000
    80000b68:	8fb9                	xor	a5,a5,a4
    80000b6a:	fef42223          	sw	a5,-28(s0)
    80000b6e:	a039                	j	80000b7c <ftoa+0x16e>
    80000b70:	00000593          	li	a1,0
    80000b74:	fe442503          	lw	a0,-28(s0)
    80000b78:	2da030ef          	jal	ra,80003e52 <__eqsf2>
    80000b7c:	fb842783          	lw	a5,-72(s0)
    80000b80:	853e                	mv	a0,a5
    80000b82:	ce3ff0ef          	jal	ra,80000864 <pow_10>
    80000b86:	87aa                	mv	a5,a0
    80000b88:	85be                	mv	a1,a5
    80000b8a:	fe442503          	lw	a0,-28(s0)
    80000b8e:	3a6030ef          	jal	ra,80003f34 <__mulsf3>
    80000b92:	87aa                	mv	a5,a0
    80000b94:	fef42223          	sw	a5,-28(s0)
    80000b98:	fe442503          	lw	a0,-28(s0)
    80000b9c:	0e5030ef          	jal	ra,80004480 <__fixsfsi>
    80000ba0:	87aa                	mv	a5,a0
    80000ba2:	0007869b          	sext.w	a3,a5
    80000ba6:	fec42783          	lw	a5,-20(s0)
    80000baa:	0785                	addi	a5,a5,1
    80000bac:	fb043703          	ld	a4,-80(s0)
    80000bb0:	97ba                	add	a5,a5,a4
    80000bb2:	fb842703          	lw	a4,-72(s0)
    80000bb6:	863a                	mv	a2,a4
    80000bb8:	85be                	mv	a1,a5
    80000bba:	8536                	mv	a0,a3
    80000bbc:	d95ff0ef          	jal	ra,80000950 <int_to_string>
    80000bc0:	0001                	nop
    80000bc2:	60a6                	ld	ra,72(sp)
    80000bc4:	6406                	ld	s0,64(sp)
    80000bc6:	6161                	addi	sp,sp,80
    80000bc8:	8082                	ret

0000000080000bca <delay_loop>:
    80000bca:	7179                	addi	sp,sp,-48
    80000bcc:	f422                	sd	s0,40(sp)
    80000bce:	1800                	addi	s0,sp,48
    80000bd0:	fca43c23          	sd	a0,-40(s0)
    80000bd4:	fcb43823          	sd	a1,-48(s0)
    80000bd8:	fd043783          	ld	a5,-48(s0)
    80000bdc:	fef43423          	sd	a5,-24(s0)
    80000be0:	a829                	j	80000bfa <delay_loop+0x30>
    80000be2:	fd043783          	ld	a5,-48(s0)
    80000be6:	fef43423          	sd	a5,-24(s0)
    80000bea:	0001                	nop
    80000bec:	fe843783          	ld	a5,-24(s0)
    80000bf0:	fff78713          	addi	a4,a5,-1 # ffffffff7fffffff <__stack_pointer$+0xfffffffef80003ff>
    80000bf4:	fee43423          	sd	a4,-24(s0)
    80000bf8:	fbf5                	bnez	a5,80000bec <delay_loop+0x22>
    80000bfa:	fd843783          	ld	a5,-40(s0)
    80000bfe:	fff78713          	addi	a4,a5,-1
    80000c02:	fce43c23          	sd	a4,-40(s0)
    80000c06:	fff1                	bnez	a5,80000be2 <delay_loop+0x18>
    80000c08:	0001                	nop
    80000c0a:	0001                	nop
    80000c0c:	7422                	ld	s0,40(sp)
    80000c0e:	6145                	addi	sp,sp,48
    80000c10:	8082                	ret

0000000080000c12 <read_word>:
    80000c12:	1101                	addi	sp,sp,-32
    80000c14:	ec06                	sd	ra,24(sp)
    80000c16:	e822                	sd	s0,16(sp)
    80000c18:	1000                	addi	s0,sp,32
    80000c1a:	fea43423          	sd	a0,-24(s0)
    80000c1e:	fe843783          	ld	a5,-24(s0)
    80000c22:	439c                	lw	a5,0(a5)
    80000c24:	863e                	mv	a2,a5
    80000c26:	fe843583          	ld	a1,-24(s0)
    80000c2a:	00004517          	auipc	a0,0x4
    80000c2e:	e1650513          	addi	a0,a0,-490 # 80004a40 <__rodata_start+0x1b8>
    80000c32:	21a000ef          	jal	ra,80000e4c <log_debug>
    80000c36:	fe843783          	ld	a5,-24(s0)
    80000c3a:	439c                	lw	a5,0(a5)
    80000c3c:	1782                	slli	a5,a5,0x20
    80000c3e:	9381                	srli	a5,a5,0x20
    80000c40:	853e                	mv	a0,a5
    80000c42:	60e2                	ld	ra,24(sp)
    80000c44:	6442                	ld	s0,16(sp)
    80000c46:	6105                	addi	sp,sp,32
    80000c48:	8082                	ret

0000000080000c4a <write_word>:
    80000c4a:	1101                	addi	sp,sp,-32
    80000c4c:	ec06                	sd	ra,24(sp)
    80000c4e:	e822                	sd	s0,16(sp)
    80000c50:	1000                	addi	s0,sp,32
    80000c52:	fea43423          	sd	a0,-24(s0)
    80000c56:	feb43023          	sd	a1,-32(s0)
    80000c5a:	fe043783          	ld	a5,-32(s0)
    80000c5e:	0007871b          	sext.w	a4,a5
    80000c62:	fe843783          	ld	a5,-24(s0)
    80000c66:	c398                	sw	a4,0(a5)
    80000c68:	fe843783          	ld	a5,-24(s0)
    80000c6c:	439c                	lw	a5,0(a5)
    80000c6e:	863e                	mv	a2,a5
    80000c70:	fe843583          	ld	a1,-24(s0)
    80000c74:	00004517          	auipc	a0,0x4
    80000c78:	dcc50513          	addi	a0,a0,-564 # 80004a40 <__rodata_start+0x1b8>
    80000c7c:	1d0000ef          	jal	ra,80000e4c <log_debug>
    80000c80:	0001                	nop
    80000c82:	60e2                	ld	ra,24(sp)
    80000c84:	6442                	ld	s0,16(sp)
    80000c86:	6105                	addi	sp,sp,32
    80000c88:	8082                	ret

0000000080000c8a <extract_ie_code>:
    80000c8a:	7179                	addi	sp,sp,-48
    80000c8c:	f406                	sd	ra,40(sp)
    80000c8e:	f022                	sd	s0,32(sp)
    80000c90:	1800                	addi	s0,sp,48
    80000c92:	87aa                	mv	a5,a0
    80000c94:	fcf42e23          	sw	a5,-36(s0)
    80000c98:	00004517          	auipc	a0,0x4
    80000c9c:	dc850513          	addi	a0,a0,-568 # 80004a60 <__rodata_start+0x1d8>
    80000ca0:	13e000ef          	jal	ra,80000dde <log_trace>
    80000ca4:	fdc42703          	lw	a4,-36(s0)
    80000ca8:	800007b7          	lui	a5,0x80000
    80000cac:	fff7c793          	not	a5,a5
    80000cb0:	8ff9                	and	a5,a5,a4
    80000cb2:	fef42623          	sw	a5,-20(s0)
    80000cb6:	fec42783          	lw	a5,-20(s0)
    80000cba:	85be                	mv	a1,a5
    80000cbc:	00004517          	auipc	a0,0x4
    80000cc0:	dc450513          	addi	a0,a0,-572 # 80004a80 <__rodata_start+0x1f8>
    80000cc4:	188000ef          	jal	ra,80000e4c <log_debug>
    80000cc8:	00004517          	auipc	a0,0x4
    80000ccc:	dd050513          	addi	a0,a0,-560 # 80004a98 <__rodata_start+0x210>
    80000cd0:	10e000ef          	jal	ra,80000dde <log_trace>
    80000cd4:	fec42783          	lw	a5,-20(s0)
    80000cd8:	853e                	mv	a0,a5
    80000cda:	70a2                	ld	ra,40(sp)
    80000cdc:	7402                	ld	s0,32(sp)
    80000cde:	6145                	addi	sp,sp,48
    80000ce0:	8082                	ret

0000000080000ce2 <default_handler>:
    80000ce2:	1101                	addi	sp,sp,-32
    80000ce4:	ec06                	sd	ra,24(sp)
    80000ce6:	e822                	sd	s0,16(sp)
    80000ce8:	1000                	addi	s0,sp,32
    80000cea:	fea43423          	sd	a0,-24(s0)
    80000cee:	feb43023          	sd	a1,-32(s0)
    80000cf2:	00004517          	auipc	a0,0x4
    80000cf6:	dbe50513          	addi	a0,a0,-578 # 80004ab0 <__rodata_start+0x228>
    80000cfa:	0e4000ef          	jal	ra,80000dde <log_trace>
    80000cfe:	a001                	j	80000cfe <default_handler+0x1c>

0000000080000d00 <handle_trap>:
    80000d00:	7179                	addi	sp,sp,-48
    80000d02:	f406                	sd	ra,40(sp)
    80000d04:	f022                	sd	s0,32(sp)
    80000d06:	1800                	addi	s0,sp,48
    80000d08:	fca43c23          	sd	a0,-40(s0)
    80000d0c:	fcb43823          	sd	a1,-48(s0)
    80000d10:	fe042623          	sw	zero,-20(s0)
    80000d14:	fe042423          	sw	zero,-24(s0)
    80000d18:	00004517          	auipc	a0,0x4
    80000d1c:	db850513          	addi	a0,a0,-584 # 80004ad0 <__rodata_start+0x248>
    80000d20:	0be000ef          	jal	ra,80000dde <log_trace>
    80000d24:	45a1                	li	a1,8
    80000d26:	00004517          	auipc	a0,0x4
    80000d2a:	dc250513          	addi	a0,a0,-574 # 80004ae8 <__rodata_start+0x260>
    80000d2e:	11e000ef          	jal	ra,80000e4c <log_debug>
    80000d32:	03f00793          	li	a5,63
    80000d36:	fef42423          	sw	a5,-24(s0)
    80000d3a:	fe842783          	lw	a5,-24(s0)
    80000d3e:	4705                	li	a4,1
    80000d40:	00f717bb          	sllw	a5,a4,a5
    80000d44:	2781                	sext.w	a5,a5
    80000d46:	873e                	mv	a4,a5
    80000d48:	fd843783          	ld	a5,-40(s0)
    80000d4c:	8ff9                	and	a5,a5,a4
    80000d4e:	c3b9                	beqz	a5,80000d94 <handle_trap+0x94>
    80000d50:	fd843783          	ld	a5,-40(s0)
    80000d54:	2781                	sext.w	a5,a5
    80000d56:	853e                	mv	a0,a5
    80000d58:	f33ff0ef          	jal	ra,80000c8a <extract_ie_code>
    80000d5c:	87aa                	mv	a5,a0
    80000d5e:	fef42623          	sw	a5,-20(s0)
    80000d62:	fd043603          	ld	a2,-48(s0)
    80000d66:	fd843583          	ld	a1,-40(s0)
    80000d6a:	00004517          	auipc	a0,0x4
    80000d6e:	d9650513          	addi	a0,a0,-618 # 80004b00 <__rodata_start+0x278>
    80000d72:	090000ef          	jal	ra,80000e02 <log_info>
    80000d76:	0000c717          	auipc	a4,0xc
    80000d7a:	79a70713          	addi	a4,a4,1946 # 8000d510 <mcause_interrupt_table>
    80000d7e:	fec46783          	lwu	a5,-20(s0)
    80000d82:	078e                	slli	a5,a5,0x3
    80000d84:	97ba                	add	a5,a5,a4
    80000d86:	639c                	ld	a5,0(a5)
    80000d88:	fd043583          	ld	a1,-48(s0)
    80000d8c:	fd843503          	ld	a0,-40(s0)
    80000d90:	9782                	jalr	a5
    80000d92:	a80d                	j	80000dc4 <handle_trap+0xc4>
    80000d94:	fd043603          	ld	a2,-48(s0)
    80000d98:	fd843583          	ld	a1,-40(s0)
    80000d9c:	00004517          	auipc	a0,0x4
    80000da0:	d8c50513          	addi	a0,a0,-628 # 80004b28 <__rodata_start+0x2a0>
    80000da4:	05e000ef          	jal	ra,80000e02 <log_info>
    80000da8:	0000c717          	auipc	a4,0xc
    80000dac:	7e870713          	addi	a4,a4,2024 # 8000d590 <mcause_trap_table>
    80000db0:	fd843783          	ld	a5,-40(s0)
    80000db4:	078e                	slli	a5,a5,0x3
    80000db6:	97ba                	add	a5,a5,a4
    80000db8:	639c                	ld	a5,0(a5)
    80000dba:	fd043583          	ld	a1,-48(s0)
    80000dbe:	fd843503          	ld	a0,-40(s0)
    80000dc2:	9782                	jalr	a5
    80000dc4:	00004517          	auipc	a0,0x4
    80000dc8:	d8c50513          	addi	a0,a0,-628 # 80004b50 <__rodata_start+0x2c8>
    80000dcc:	012000ef          	jal	ra,80000dde <log_trace>
    80000dd0:	fd043783          	ld	a5,-48(s0)
    80000dd4:	853e                	mv	a0,a5
    80000dd6:	70a2                	ld	ra,40(sp)
    80000dd8:	7402                	ld	s0,32(sp)
    80000dda:	6145                	addi	sp,sp,48
    80000ddc:	8082                	ret

0000000080000dde <log_trace>:
    80000dde:	7159                	addi	sp,sp,-112
    80000de0:	f422                	sd	s0,40(sp)
    80000de2:	1800                	addi	s0,sp,48
    80000de4:	fca43c23          	sd	a0,-40(s0)
    80000de8:	e40c                	sd	a1,8(s0)
    80000dea:	e810                	sd	a2,16(s0)
    80000dec:	ec14                	sd	a3,24(s0)
    80000dee:	f018                	sd	a4,32(s0)
    80000df0:	f41c                	sd	a5,40(s0)
    80000df2:	03043823          	sd	a6,48(s0)
    80000df6:	03143c23          	sd	a7,56(s0)
    80000dfa:	0001                	nop
    80000dfc:	7422                	ld	s0,40(sp)
    80000dfe:	6165                	addi	sp,sp,112
    80000e00:	8082                	ret

0000000080000e02 <log_info>:
    80000e02:	7159                	addi	sp,sp,-112
    80000e04:	f406                	sd	ra,40(sp)
    80000e06:	f022                	sd	s0,32(sp)
    80000e08:	1800                	addi	s0,sp,48
    80000e0a:	fca43c23          	sd	a0,-40(s0)
    80000e0e:	e40c                	sd	a1,8(s0)
    80000e10:	e810                	sd	a2,16(s0)
    80000e12:	ec14                	sd	a3,24(s0)
    80000e14:	f018                	sd	a4,32(s0)
    80000e16:	f41c                	sd	a5,40(s0)
    80000e18:	03043823          	sd	a6,48(s0)
    80000e1c:	03143c23          	sd	a7,56(s0)
    80000e20:	04040793          	addi	a5,s0,64
    80000e24:	fcf43823          	sd	a5,-48(s0)
    80000e28:	fd043783          	ld	a5,-48(s0)
    80000e2c:	fc878793          	addi	a5,a5,-56 # ffffffff7fffffc8 <__stack_pointer$+0xfffffffef80003c8>
    80000e30:	fef43423          	sd	a5,-24(s0)
    80000e34:	fe843783          	ld	a5,-24(s0)
    80000e38:	85be                	mv	a1,a5
    80000e3a:	fd843503          	ld	a0,-40(s0)
    80000e3e:	1ea000ef          	jal	ra,80001028 <_printf_>
    80000e42:	0001                	nop
    80000e44:	70a2                	ld	ra,40(sp)
    80000e46:	7402                	ld	s0,32(sp)
    80000e48:	6165                	addi	sp,sp,112
    80000e4a:	8082                	ret

0000000080000e4c <log_debug>:
    80000e4c:	7159                	addi	sp,sp,-112
    80000e4e:	f422                	sd	s0,40(sp)
    80000e50:	1800                	addi	s0,sp,48
    80000e52:	fca43c23          	sd	a0,-40(s0)
    80000e56:	e40c                	sd	a1,8(s0)
    80000e58:	e810                	sd	a2,16(s0)
    80000e5a:	ec14                	sd	a3,24(s0)
    80000e5c:	f018                	sd	a4,32(s0)
    80000e5e:	f41c                	sd	a5,40(s0)
    80000e60:	03043823          	sd	a6,48(s0)
    80000e64:	03143c23          	sd	a7,56(s0)
    80000e68:	0001                	nop
    80000e6a:	7422                	ld	s0,40(sp)
    80000e6c:	6165                	addi	sp,sp,112
    80000e6e:	8082                	ret

0000000080000e70 <log_warn>:
    80000e70:	7159                	addi	sp,sp,-112
    80000e72:	f406                	sd	ra,40(sp)
    80000e74:	f022                	sd	s0,32(sp)
    80000e76:	1800                	addi	s0,sp,48
    80000e78:	fca43c23          	sd	a0,-40(s0)
    80000e7c:	e40c                	sd	a1,8(s0)
    80000e7e:	e810                	sd	a2,16(s0)
    80000e80:	ec14                	sd	a3,24(s0)
    80000e82:	f018                	sd	a4,32(s0)
    80000e84:	f41c                	sd	a5,40(s0)
    80000e86:	03043823          	sd	a6,48(s0)
    80000e8a:	03143c23          	sd	a7,56(s0)
    80000e8e:	04040793          	addi	a5,s0,64
    80000e92:	fcf43823          	sd	a5,-48(s0)
    80000e96:	fd043783          	ld	a5,-48(s0)
    80000e9a:	fc878793          	addi	a5,a5,-56
    80000e9e:	fef43423          	sd	a5,-24(s0)
    80000ea2:	fe843783          	ld	a5,-24(s0)
    80000ea6:	85be                	mv	a1,a5
    80000ea8:	fd843503          	ld	a0,-40(s0)
    80000eac:	17c000ef          	jal	ra,80001028 <_printf_>
    80000eb0:	0001                	nop
    80000eb2:	70a2                	ld	ra,40(sp)
    80000eb4:	7402                	ld	s0,32(sp)
    80000eb6:	6165                	addi	sp,sp,112
    80000eb8:	8082                	ret

0000000080000eba <log_error>:
    80000eba:	7159                	addi	sp,sp,-112
    80000ebc:	f406                	sd	ra,40(sp)
    80000ebe:	f022                	sd	s0,32(sp)
    80000ec0:	1800                	addi	s0,sp,48
    80000ec2:	fca43c23          	sd	a0,-40(s0)
    80000ec6:	e40c                	sd	a1,8(s0)
    80000ec8:	e810                	sd	a2,16(s0)
    80000eca:	ec14                	sd	a3,24(s0)
    80000ecc:	f018                	sd	a4,32(s0)
    80000ece:	f41c                	sd	a5,40(s0)
    80000ed0:	03043823          	sd	a6,48(s0)
    80000ed4:	03143c23          	sd	a7,56(s0)
    80000ed8:	04040793          	addi	a5,s0,64
    80000edc:	fcf43823          	sd	a5,-48(s0)
    80000ee0:	fd043783          	ld	a5,-48(s0)
    80000ee4:	fc878793          	addi	a5,a5,-56
    80000ee8:	fef43423          	sd	a5,-24(s0)
    80000eec:	fe843783          	ld	a5,-24(s0)
    80000ef0:	85be                	mv	a1,a5
    80000ef2:	fd843503          	ld	a0,-40(s0)
    80000ef6:	132000ef          	jal	ra,80001028 <_printf_>
    80000efa:	0001                	nop
    80000efc:	70a2                	ld	ra,40(sp)
    80000efe:	7402                	ld	s0,32(sp)
    80000f00:	6165                	addi	sp,sp,112
    80000f02:	8082                	ret

0000000080000f04 <log_fatal>:
    80000f04:	7159                	addi	sp,sp,-112
    80000f06:	f406                	sd	ra,40(sp)
    80000f08:	f022                	sd	s0,32(sp)
    80000f0a:	1800                	addi	s0,sp,48
    80000f0c:	fca43c23          	sd	a0,-40(s0)
    80000f10:	e40c                	sd	a1,8(s0)
    80000f12:	e810                	sd	a2,16(s0)
    80000f14:	ec14                	sd	a3,24(s0)
    80000f16:	f018                	sd	a4,32(s0)
    80000f18:	f41c                	sd	a5,40(s0)
    80000f1a:	03043823          	sd	a6,48(s0)
    80000f1e:	03143c23          	sd	a7,56(s0)
    80000f22:	04040793          	addi	a5,s0,64
    80000f26:	fcf43823          	sd	a5,-48(s0)
    80000f2a:	fd043783          	ld	a5,-48(s0)
    80000f2e:	fc878793          	addi	a5,a5,-56
    80000f32:	fef43423          	sd	a5,-24(s0)
    80000f36:	fe843783          	ld	a5,-24(s0)
    80000f3a:	85be                	mv	a1,a5
    80000f3c:	fd843503          	ld	a0,-40(s0)
    80000f40:	0e8000ef          	jal	ra,80001028 <_printf_>
    80000f44:	00004517          	auipc	a0,0x4
    80000f48:	c2450513          	addi	a0,a0,-988 # 80004b68 <__rodata_start+0x2e0>
    80000f4c:	eb7ff0ef          	jal	ra,80000e02 <log_info>
    80000f50:	a001                	j	80000f50 <log_fatal+0x4c>

0000000080000f52 <itoa>:
    80000f52:	7169                	addi	sp,sp,-304
    80000f54:	f606                	sd	ra,296(sp)
    80000f56:	f222                	sd	s0,288(sp)
    80000f58:	1a00                	addi	s0,sp,304
    80000f5a:	eca43c23          	sd	a0,-296(s0)
    80000f5e:	87ae                	mv	a5,a1
    80000f60:	ecf42a23          	sw	a5,-300(s0)
    80000f64:	fe042623          	sw	zero,-20(s0)
    80000f68:	fe042423          	sw	zero,-24(s0)
    80000f6c:	ed446783          	lwu	a5,-300(s0)
    80000f70:	ed843703          	ld	a4,-296(s0)
    80000f74:	02f777b3          	remu	a5,a4,a5
    80000f78:	0007871b          	sext.w	a4,a5
    80000f7c:	fec42783          	lw	a5,-20(s0)
    80000f80:	078a                	slli	a5,a5,0x2
    80000f82:	ff040693          	addi	a3,s0,-16
    80000f86:	97b6                	add	a5,a5,a3
    80000f88:	eee7ac23          	sw	a4,-264(a5)
    80000f8c:	ed446783          	lwu	a5,-300(s0)
    80000f90:	ed843703          	ld	a4,-296(s0)
    80000f94:	02f76063          	bltu	a4,a5,80000fb4 <itoa+0x62>
    80000f98:	ed446783          	lwu	a5,-300(s0)
    80000f9c:	ed843703          	ld	a4,-296(s0)
    80000fa0:	02f757b3          	divu	a5,a4,a5
    80000fa4:	ecf43c23          	sd	a5,-296(s0)
    80000fa8:	fec42783          	lw	a5,-20(s0)
    80000fac:	2785                	addiw	a5,a5,1
    80000fae:	fef42623          	sw	a5,-20(s0)
    80000fb2:	bf6d                	j	80000f6c <itoa+0x1a>
    80000fb4:	0001                	nop
    80000fb6:	fec42783          	lw	a5,-20(s0)
    80000fba:	2785                	addiw	a5,a5,1
    80000fbc:	fef42623          	sw	a5,-20(s0)
    80000fc0:	a0b1                	j	8000100c <itoa+0xba>
    80000fc2:	fec42783          	lw	a5,-20(s0)
    80000fc6:	078a                	slli	a5,a5,0x2
    80000fc8:	ff040713          	addi	a4,s0,-16
    80000fcc:	97ba                	add	a5,a5,a4
    80000fce:	ef87a783          	lw	a5,-264(a5)
    80000fd2:	873e                	mv	a4,a5
    80000fd4:	47a5                	li	a5,9
    80000fd6:	00e7f763          	bgeu	a5,a4,80000fe4 <itoa+0x92>
    80000fda:	05700793          	li	a5,87
    80000fde:	fef42423          	sw	a5,-24(s0)
    80000fe2:	a029                	j	80000fec <itoa+0x9a>
    80000fe4:	03000793          	li	a5,48
    80000fe8:	fef42423          	sw	a5,-24(s0)
    80000fec:	fec42783          	lw	a5,-20(s0)
    80000ff0:	078a                	slli	a5,a5,0x2
    80000ff2:	ff040713          	addi	a4,s0,-16
    80000ff6:	97ba                	add	a5,a5,a4
    80000ff8:	ef87a783          	lw	a5,-264(a5)
    80000ffc:	fe842703          	lw	a4,-24(s0)
    80001000:	9fb9                	addw	a5,a5,a4
    80001002:	2781                	sext.w	a5,a5
    80001004:	2781                	sext.w	a5,a5
    80001006:	853e                	mv	a0,a5
    80001008:	4a6000ef          	jal	ra,800014ae <putchar>
    8000100c:	fec42783          	lw	a5,-20(s0)
    80001010:	fff7871b          	addiw	a4,a5,-1
    80001014:	fee42623          	sw	a4,-20(s0)
    80001018:	faf045e3          	bgtz	a5,80000fc2 <itoa+0x70>
    8000101c:	0001                	nop
    8000101e:	0001                	nop
    80001020:	70b2                	ld	ra,296(sp)
    80001022:	7412                	ld	s0,288(sp)
    80001024:	6155                	addi	sp,sp,304
    80001026:	8082                	ret

0000000080001028 <_printf_>:
    80001028:	7119                	addi	sp,sp,-128
    8000102a:	fc86                	sd	ra,120(sp)
    8000102c:	f8a2                	sd	s0,112(sp)
    8000102e:	f4a6                	sd	s1,104(sp)
    80001030:	f0ca                	sd	s2,96(sp)
    80001032:	0100                	addi	s0,sp,128
    80001034:	f8a43423          	sd	a0,-120(s0)
    80001038:	f8b43023          	sd	a1,-128(s0)
    8000103c:	00000793          	li	a5,0
    80001040:	fcf42423          	sw	a5,-56(s0)
    80001044:	f8043c23          	sd	zero,-104(s0)
    80001048:	fa043023          	sd	zero,-96(s0)
    8000104c:	fa043423          	sd	zero,-88(s0)
    80001050:	fa042823          	sw	zero,-80(s0)
    80001054:	fa041a23          	sh	zero,-76(s0)
    80001058:	a819                	j	8000106e <_printf_+0x46>
    8000105a:	36048a63          	beqz	s1,800013ce <_printf_+0x3a6>
    8000105e:	8526                	mv	a0,s1
    80001060:	44e000ef          	jal	ra,800014ae <putchar>
    80001064:	f8843783          	ld	a5,-120(s0)
    80001068:	0785                	addi	a5,a5,1
    8000106a:	f8f43423          	sd	a5,-120(s0)
    8000106e:	f8843783          	ld	a5,-120(s0)
    80001072:	0007c783          	lbu	a5,0(a5)
    80001076:	0007849b          	sext.w	s1,a5
    8000107a:	8726                	mv	a4,s1
    8000107c:	02500793          	li	a5,37
    80001080:	fcf71de3          	bne	a4,a5,8000105a <_printf_+0x32>
    80001084:	f8843783          	ld	a5,-120(s0)
    80001088:	0785                	addi	a5,a5,1
    8000108a:	f8f43423          	sd	a5,-120(s0)
    8000108e:	f8843783          	ld	a5,-120(s0)
    80001092:	fcf43023          	sd	a5,-64(s0)
    80001096:	fc042a23          	sw	zero,-44(s0)
    8000109a:	fc042623          	sw	zero,-52(s0)
    8000109e:	f8843783          	ld	a5,-120(s0)
    800010a2:	00178713          	addi	a4,a5,1
    800010a6:	f8e43423          	sd	a4,-120(s0)
    800010aa:	0007c783          	lbu	a5,0(a5)
    800010ae:	0007849b          	sext.w	s1,a5
    800010b2:	8726                	mv	a4,s1
    800010b4:	02500793          	li	a5,37
    800010b8:	2ef70563          	beq	a4,a5,800013a2 <_printf_+0x37a>
    800010bc:	8726                	mv	a4,s1
    800010be:	02500793          	li	a5,37
    800010c2:	2ef74463          	blt	a4,a5,800013aa <_printf_+0x382>
    800010c6:	8726                	mv	a4,s1
    800010c8:	07800793          	li	a5,120
    800010cc:	2ce7cf63          	blt	a5,a4,800013aa <_printf_+0x382>
    800010d0:	8726                	mv	a4,s1
    800010d2:	06300793          	li	a5,99
    800010d6:	2cf74a63          	blt	a4,a5,800013aa <_printf_+0x382>
    800010da:	f9d4869b          	addiw	a3,s1,-99
    800010de:	0006871b          	sext.w	a4,a3
    800010e2:	47d5                	li	a5,21
    800010e4:	2ce7e363          	bltu	a5,a4,800013aa <_printf_+0x382>
    800010e8:	02069793          	slli	a5,a3,0x20
    800010ec:	9381                	srli	a5,a5,0x20
    800010ee:	00279713          	slli	a4,a5,0x2
    800010f2:	00004797          	auipc	a5,0x4
    800010f6:	a8e78793          	addi	a5,a5,-1394 # 80004b80 <__rodata_start+0x2f8>
    800010fa:	97ba                	add	a5,a5,a4
    800010fc:	439c                	lw	a5,0(a5)
    800010fe:	0007871b          	sext.w	a4,a5
    80001102:	00004797          	auipc	a5,0x4
    80001106:	a7e78793          	addi	a5,a5,-1410 # 80004b80 <__rodata_start+0x2f8>
    8000110a:	97ba                	add	a5,a5,a4
    8000110c:	8782                	jr	a5
    8000110e:	fd442783          	lw	a5,-44(s0)
    80001112:	2785                	addiw	a5,a5,1
    80001114:	fcf42a23          	sw	a5,-44(s0)
    80001118:	4785                	li	a5,1
    8000111a:	fcf42623          	sw	a5,-52(s0)
    8000111e:	ac79                	j	800013bc <_printf_+0x394>
    80001120:	f8043783          	ld	a5,-128(s0)
    80001124:	00878713          	addi	a4,a5,8
    80001128:	f8e43023          	sd	a4,-128(s0)
    8000112c:	439c                	lw	a5,0(a5)
    8000112e:	853e                	mv	a0,a5
    80001130:	37e000ef          	jal	ra,800014ae <putchar>
    80001134:	a461                	j	800013bc <_printf_+0x394>
    80001136:	f8043783          	ld	a5,-128(s0)
    8000113a:	00878713          	addi	a4,a5,8
    8000113e:	f8e43023          	sd	a4,-128(s0)
    80001142:	0007b903          	ld	s2,0(a5)
    80001146:	00091b63          	bnez	s2,8000115c <_printf_+0x134>
    8000114a:	00004917          	auipc	s2,0x4
    8000114e:	a2e90913          	addi	s2,s2,-1490 # 80004b78 <__rodata_start+0x2f0>
    80001152:	a029                	j	8000115c <_printf_+0x134>
    80001154:	8526                	mv	a0,s1
    80001156:	358000ef          	jal	ra,800014ae <putchar>
    8000115a:	0905                	addi	s2,s2,1
    8000115c:	00094783          	lbu	a5,0(s2)
    80001160:	0007849b          	sext.w	s1,a5
    80001164:	f8e5                	bnez	s1,80001154 <_printf_+0x12c>
    80001166:	ac99                	j	800013bc <_printf_+0x394>
    80001168:	47a9                	li	a5,10
    8000116a:	faf42e23          	sw	a5,-68(s0)
    8000116e:	fd442783          	lw	a5,-44(s0)
    80001172:	0007871b          	sext.w	a4,a5
    80001176:	4785                	li	a5,1
    80001178:	00e7dc63          	bge	a5,a4,80001190 <_printf_+0x168>
    8000117c:	f8043783          	ld	a5,-128(s0)
    80001180:	00878713          	addi	a4,a5,8
    80001184:	f8e43023          	sd	a4,-128(s0)
    80001188:	639c                	ld	a5,0(a5)
    8000118a:	fcf43c23          	sd	a5,-40(s0)
    8000118e:	a81d                	j	800011c4 <_printf_+0x19c>
    80001190:	fd442783          	lw	a5,-44(s0)
    80001194:	0007871b          	sext.w	a4,a5
    80001198:	4785                	li	a5,1
    8000119a:	00f71c63          	bne	a4,a5,800011b2 <_printf_+0x18a>
    8000119e:	f8043783          	ld	a5,-128(s0)
    800011a2:	00878713          	addi	a4,a5,8
    800011a6:	f8e43023          	sd	a4,-128(s0)
    800011aa:	639c                	ld	a5,0(a5)
    800011ac:	fcf43c23          	sd	a5,-40(s0)
    800011b0:	a811                	j	800011c4 <_printf_+0x19c>
    800011b2:	f8043783          	ld	a5,-128(s0)
    800011b6:	00878713          	addi	a4,a5,8
    800011ba:	f8e43023          	sd	a4,-128(s0)
    800011be:	439c                	lw	a5,0(a5)
    800011c0:	fcf43c23          	sd	a5,-40(s0)
    800011c4:	fd843783          	ld	a5,-40(s0)
    800011c8:	0007dc63          	bgez	a5,800011e0 <_printf_+0x1b8>
    800011cc:	02d00513          	li	a0,45
    800011d0:	2de000ef          	jal	ra,800014ae <putchar>
    800011d4:	fd843783          	ld	a5,-40(s0)
    800011d8:	40f007b3          	neg	a5,a5
    800011dc:	fcf43c23          	sd	a5,-40(s0)
    800011e0:	fbc42783          	lw	a5,-68(s0)
    800011e4:	85be                	mv	a1,a5
    800011e6:	fd843503          	ld	a0,-40(s0)
    800011ea:	d69ff0ef          	jal	ra,80000f52 <itoa>
    800011ee:	a2f9                	j	800013bc <_printf_+0x394>
    800011f0:	f8043783          	ld	a5,-128(s0)
    800011f4:	00878713          	addi	a4,a5,8
    800011f8:	f8e43023          	sd	a4,-128(s0)
    800011fc:	639c                	ld	a5,0(a5)
    800011fe:	853e                	mv	a0,a5
    80001200:	4dc030ef          	jal	ra,800046dc <__truncdfsf2>
    80001204:	87aa                	mv	a5,a0
    80001206:	fcf42423          	sw	a5,-56(s0)
    8000120a:	f9840793          	addi	a5,s0,-104
    8000120e:	4619                	li	a2,6
    80001210:	85be                	mv	a1,a5
    80001212:	fc842503          	lw	a0,-56(s0)
    80001216:	ff8ff0ef          	jal	ra,80000a0e <ftoa>
    8000121a:	fc042823          	sw	zero,-48(s0)
    8000121e:	a805                	j	8000124e <_printf_+0x226>
    80001220:	fd042783          	lw	a5,-48(s0)
    80001224:	fe040713          	addi	a4,s0,-32
    80001228:	97ba                	add	a5,a5,a4
    8000122a:	fb87c783          	lbu	a5,-72(a5)
    8000122e:	2781                	sext.w	a5,a5
    80001230:	853e                	mv	a0,a5
    80001232:	27c000ef          	jal	ra,800014ae <putchar>
    80001236:	fd042783          	lw	a5,-48(s0)
    8000123a:	0007871b          	sext.w	a4,a5
    8000123e:	47f5                	li	a5,29
    80001240:	02e7c063          	blt	a5,a4,80001260 <_printf_+0x238>
    80001244:	fd042783          	lw	a5,-48(s0)
    80001248:	2785                	addiw	a5,a5,1
    8000124a:	fcf42823          	sw	a5,-48(s0)
    8000124e:	fd042783          	lw	a5,-48(s0)
    80001252:	fe040713          	addi	a4,s0,-32
    80001256:	97ba                	add	a5,a5,a4
    80001258:	fb87c783          	lbu	a5,-72(a5)
    8000125c:	f3f1                	bnez	a5,80001220 <_printf_+0x1f8>
    8000125e:	aab9                	j	800013bc <_printf_+0x394>
    80001260:	0001                	nop
    80001262:	aaa9                	j	800013bc <_printf_+0x394>
    80001264:	47a9                	li	a5,10
    80001266:	faf42e23          	sw	a5,-68(s0)
    8000126a:	fd442783          	lw	a5,-44(s0)
    8000126e:	0007871b          	sext.w	a4,a5
    80001272:	4785                	li	a5,1
    80001274:	00e7dc63          	bge	a5,a4,8000128c <_printf_+0x264>
    80001278:	f8043783          	ld	a5,-128(s0)
    8000127c:	00878713          	addi	a4,a5,8
    80001280:	f8e43023          	sd	a4,-128(s0)
    80001284:	639c                	ld	a5,0(a5)
    80001286:	fcf43c23          	sd	a5,-40(s0)
    8000128a:	a815                	j	800012be <_printf_+0x296>
    8000128c:	fd442783          	lw	a5,-44(s0)
    80001290:	2781                	sext.w	a5,a5
    80001292:	cb99                	beqz	a5,800012a8 <_printf_+0x280>
    80001294:	f8043783          	ld	a5,-128(s0)
    80001298:	00878713          	addi	a4,a5,8
    8000129c:	f8e43023          	sd	a4,-128(s0)
    800012a0:	639c                	ld	a5,0(a5)
    800012a2:	fcf43c23          	sd	a5,-40(s0)
    800012a6:	a821                	j	800012be <_printf_+0x296>
    800012a8:	f8043783          	ld	a5,-128(s0)
    800012ac:	00878713          	addi	a4,a5,8
    800012b0:	f8e43023          	sd	a4,-128(s0)
    800012b4:	439c                	lw	a5,0(a5)
    800012b6:	1782                	slli	a5,a5,0x20
    800012b8:	9381                	srli	a5,a5,0x20
    800012ba:	fcf43c23          	sd	a5,-40(s0)
    800012be:	fbc42783          	lw	a5,-68(s0)
    800012c2:	85be                	mv	a1,a5
    800012c4:	fd843503          	ld	a0,-40(s0)
    800012c8:	c8bff0ef          	jal	ra,80000f52 <itoa>
    800012cc:	a8c5                	j	800013bc <_printf_+0x394>
    800012ce:	47a1                	li	a5,8
    800012d0:	faf42e23          	sw	a5,-68(s0)
    800012d4:	fd442783          	lw	a5,-44(s0)
    800012d8:	0007871b          	sext.w	a4,a5
    800012dc:	4785                	li	a5,1
    800012de:	00e7dc63          	bge	a5,a4,800012f6 <_printf_+0x2ce>
    800012e2:	f8043783          	ld	a5,-128(s0)
    800012e6:	00878713          	addi	a4,a5,8
    800012ea:	f8e43023          	sd	a4,-128(s0)
    800012ee:	639c                	ld	a5,0(a5)
    800012f0:	fcf43c23          	sd	a5,-40(s0)
    800012f4:	a815                	j	80001328 <_printf_+0x300>
    800012f6:	fd442783          	lw	a5,-44(s0)
    800012fa:	2781                	sext.w	a5,a5
    800012fc:	cb99                	beqz	a5,80001312 <_printf_+0x2ea>
    800012fe:	f8043783          	ld	a5,-128(s0)
    80001302:	00878713          	addi	a4,a5,8
    80001306:	f8e43023          	sd	a4,-128(s0)
    8000130a:	639c                	ld	a5,0(a5)
    8000130c:	fcf43c23          	sd	a5,-40(s0)
    80001310:	a821                	j	80001328 <_printf_+0x300>
    80001312:	f8043783          	ld	a5,-128(s0)
    80001316:	00878713          	addi	a4,a5,8
    8000131a:	f8e43023          	sd	a4,-128(s0)
    8000131e:	439c                	lw	a5,0(a5)
    80001320:	1782                	slli	a5,a5,0x20
    80001322:	9381                	srli	a5,a5,0x20
    80001324:	fcf43c23          	sd	a5,-40(s0)
    80001328:	fbc42783          	lw	a5,-68(s0)
    8000132c:	85be                	mv	a1,a5
    8000132e:	fd843503          	ld	a0,-40(s0)
    80001332:	c21ff0ef          	jal	ra,80000f52 <itoa>
    80001336:	a059                	j	800013bc <_printf_+0x394>
    80001338:	47c1                	li	a5,16
    8000133a:	faf42e23          	sw	a5,-68(s0)
    8000133e:	fd442783          	lw	a5,-44(s0)
    80001342:	0007871b          	sext.w	a4,a5
    80001346:	4785                	li	a5,1
    80001348:	00e7dc63          	bge	a5,a4,80001360 <_printf_+0x338>
    8000134c:	f8043783          	ld	a5,-128(s0)
    80001350:	00878713          	addi	a4,a5,8
    80001354:	f8e43023          	sd	a4,-128(s0)
    80001358:	639c                	ld	a5,0(a5)
    8000135a:	fcf43c23          	sd	a5,-40(s0)
    8000135e:	a815                	j	80001392 <_printf_+0x36a>
    80001360:	fd442783          	lw	a5,-44(s0)
    80001364:	2781                	sext.w	a5,a5
    80001366:	cb99                	beqz	a5,8000137c <_printf_+0x354>
    80001368:	f8043783          	ld	a5,-128(s0)
    8000136c:	00878713          	addi	a4,a5,8
    80001370:	f8e43023          	sd	a4,-128(s0)
    80001374:	639c                	ld	a5,0(a5)
    80001376:	fcf43c23          	sd	a5,-40(s0)
    8000137a:	a821                	j	80001392 <_printf_+0x36a>
    8000137c:	f8043783          	ld	a5,-128(s0)
    80001380:	00878713          	addi	a4,a5,8
    80001384:	f8e43023          	sd	a4,-128(s0)
    80001388:	439c                	lw	a5,0(a5)
    8000138a:	1782                	slli	a5,a5,0x20
    8000138c:	9381                	srli	a5,a5,0x20
    8000138e:	fcf43c23          	sd	a5,-40(s0)
    80001392:	fbc42783          	lw	a5,-68(s0)
    80001396:	85be                	mv	a1,a5
    80001398:	fd843503          	ld	a0,-40(s0)
    8000139c:	bb7ff0ef          	jal	ra,80000f52 <itoa>
    800013a0:	a831                	j	800013bc <_printf_+0x394>
    800013a2:	8526                	mv	a0,s1
    800013a4:	10a000ef          	jal	ra,800014ae <putchar>
    800013a8:	a811                	j	800013bc <_printf_+0x394>
    800013aa:	02500513          	li	a0,37
    800013ae:	100000ef          	jal	ra,800014ae <putchar>
    800013b2:	fc043783          	ld	a5,-64(s0)
    800013b6:	f8f43423          	sd	a5,-120(s0)
    800013ba:	0001                	nop
    800013bc:	fcc42783          	lw	a5,-52(s0)
    800013c0:	2781                	sext.w	a5,a5
    800013c2:	c781                	beqz	a5,800013ca <_printf_+0x3a2>
    800013c4:	fc042623          	sw	zero,-52(s0)
    800013c8:	b9d9                	j	8000109e <_printf_+0x76>
    800013ca:	0001                	nop
    800013cc:	b14d                	j	8000106e <_printf_+0x46>
    800013ce:	0001                	nop
    800013d0:	70e6                	ld	ra,120(sp)
    800013d2:	7446                	ld	s0,112(sp)
    800013d4:	74a6                	ld	s1,104(sp)
    800013d6:	7906                	ld	s2,96(sp)
    800013d8:	6109                	addi	sp,sp,128
    800013da:	8082                	ret

00000000800013dc <printf>:
    800013dc:	7159                	addi	sp,sp,-112
    800013de:	f406                	sd	ra,40(sp)
    800013e0:	f022                	sd	s0,32(sp)
    800013e2:	1800                	addi	s0,sp,48
    800013e4:	fca43c23          	sd	a0,-40(s0)
    800013e8:	e40c                	sd	a1,8(s0)
    800013ea:	e810                	sd	a2,16(s0)
    800013ec:	ec14                	sd	a3,24(s0)
    800013ee:	f018                	sd	a4,32(s0)
    800013f0:	f41c                	sd	a5,40(s0)
    800013f2:	03043823          	sd	a6,48(s0)
    800013f6:	03143c23          	sd	a7,56(s0)
    800013fa:	04040793          	addi	a5,s0,64
    800013fe:	fcf43823          	sd	a5,-48(s0)
    80001402:	fd043783          	ld	a5,-48(s0)
    80001406:	fc878793          	addi	a5,a5,-56
    8000140a:	fef43423          	sd	a5,-24(s0)
    8000140e:	fe843783          	ld	a5,-24(s0)
    80001412:	85be                	mv	a1,a5
    80001414:	fd843503          	ld	a0,-40(s0)
    80001418:	c11ff0ef          	jal	ra,80001028 <_printf_>
    8000141c:	4781                	li	a5,0
    8000141e:	853e                	mv	a0,a5
    80001420:	70a2                	ld	ra,40(sp)
    80001422:	7402                	ld	s0,32(sp)
    80001424:	6165                	addi	sp,sp,112
    80001426:	8082                	ret

0000000080001428 <uart_init>:
    80001428:	1101                	addi	sp,sp,-32
    8000142a:	ec22                	sd	s0,24(sp)
    8000142c:	1000                	addi	s0,sp,32
    8000142e:	fe042623          	sw	zero,-20(s0)
    80001432:	a805                	j	80001462 <uart_init+0x3a>
    80001434:	fec42783          	lw	a5,-20(s0)
    80001438:	1137879b          	addiw	a5,a5,275
    8000143c:	2781                	sext.w	a5,a5
    8000143e:	0087979b          	slliw	a5,a5,0x8
    80001442:	2781                	sext.w	a5,a5
    80001444:	86be                	mv	a3,a5
    80001446:	0000c717          	auipc	a4,0xc
    8000144a:	1ca70713          	addi	a4,a4,458 # 8000d610 <uart_instance>
    8000144e:	fec42783          	lw	a5,-20(s0)
    80001452:	078e                	slli	a5,a5,0x3
    80001454:	97ba                	add	a5,a5,a4
    80001456:	e394                	sd	a3,0(a5)
    80001458:	fec42783          	lw	a5,-20(s0)
    8000145c:	2785                	addiw	a5,a5,1
    8000145e:	fef42623          	sw	a5,-20(s0)
    80001462:	fec42783          	lw	a5,-20(s0)
    80001466:	0007871b          	sext.w	a4,a5
    8000146a:	4789                	li	a5,2
    8000146c:	fce7d4e3          	bge	a5,a4,80001434 <uart_init+0xc>
    80001470:	0001                	nop
    80001472:	0001                	nop
    80001474:	6462                	ld	s0,24(sp)
    80001476:	6105                	addi	sp,sp,32
    80001478:	8082                	ret

000000008000147a <getchar>:
    8000147a:	1141                	addi	sp,sp,-16
    8000147c:	e422                	sd	s0,8(sp)
    8000147e:	0800                	addi	s0,sp,16
    80001480:	0001                	nop
    80001482:	0000c797          	auipc	a5,0xc
    80001486:	18e78793          	addi	a5,a5,398 # 8000d610 <uart_instance>
    8000148a:	639c                	ld	a5,0(a5)
    8000148c:	00c7c783          	lbu	a5,12(a5)
    80001490:	2781                	sext.w	a5,a5
    80001492:	8b91                	andi	a5,a5,4
    80001494:	2781                	sext.w	a5,a5
    80001496:	d7f5                	beqz	a5,80001482 <getchar+0x8>
    80001498:	0000c797          	auipc	a5,0xc
    8000149c:	17878793          	addi	a5,a5,376 # 8000d610 <uart_instance>
    800014a0:	639c                	ld	a5,0(a5)
    800014a2:	479c                	lw	a5,8(a5)
    800014a4:	2781                	sext.w	a5,a5
    800014a6:	853e                	mv	a0,a5
    800014a8:	6422                	ld	s0,8(sp)
    800014aa:	0141                	addi	sp,sp,16
    800014ac:	8082                	ret

00000000800014ae <putchar>:
    800014ae:	1101                	addi	sp,sp,-32
    800014b0:	ec22                	sd	s0,24(sp)
    800014b2:	1000                	addi	s0,sp,32
    800014b4:	87aa                	mv	a5,a0
    800014b6:	fef42623          	sw	a5,-20(s0)
    800014ba:	0001                	nop
    800014bc:	0000c797          	auipc	a5,0xc
    800014c0:	15478793          	addi	a5,a5,340 # 8000d610 <uart_instance>
    800014c4:	639c                	ld	a5,0(a5)
    800014c6:	00c7c783          	lbu	a5,12(a5)
    800014ca:	2781                	sext.w	a5,a5
    800014cc:	8b89                	andi	a5,a5,2
    800014ce:	2781                	sext.w	a5,a5
    800014d0:	f7f5                	bnez	a5,800014bc <putchar+0xe>
    800014d2:	0000c797          	auipc	a5,0xc
    800014d6:	13e78793          	addi	a5,a5,318 # 8000d610 <uart_instance>
    800014da:	639c                	ld	a5,0(a5)
    800014dc:	fec42703          	lw	a4,-20(s0)
    800014e0:	c3d8                	sw	a4,4(a5)
    800014e2:	4781                	li	a5,0
    800014e4:	853e                	mv	a0,a5
    800014e6:	6462                	ld	s0,24(sp)
    800014e8:	6105                	addi	sp,sp,32
    800014ea:	8082                	ret

00000000800014ec <set_baud_rate>:
    800014ec:	7179                	addi	sp,sp,-48
    800014ee:	f422                	sd	s0,40(sp)
    800014f0:	1800                	addi	s0,sp,48
    800014f2:	fca43c23          	sd	a0,-40(s0)
    800014f6:	87ae                	mv	a5,a1
    800014f8:	fcf42a23          	sw	a5,-44(s0)
    800014fc:	fe042623          	sw	zero,-20(s0)
    80001500:	fd442783          	lw	a5,-44(s0)
    80001504:	0047979b          	slliw	a5,a5,0x4
    80001508:	2781                	sext.w	a5,a5
    8000150a:	02faf737          	lui	a4,0x2faf
    8000150e:	0807071b          	addiw	a4,a4,128
    80001512:	02f757bb          	divuw	a5,a4,a5
    80001516:	fef42623          	sw	a5,-20(s0)
    8000151a:	fec42783          	lw	a5,-20(s0)
    8000151e:	03079713          	slli	a4,a5,0x30
    80001522:	9341                	srli	a4,a4,0x30
    80001524:	fd843783          	ld	a5,-40(s0)
    80001528:	00e79023          	sh	a4,0(a5)
    8000152c:	0001                	nop
    8000152e:	7422                	ld	s0,40(sp)
    80001530:	6145                	addi	sp,sp,48
    80001532:	8082                	ret

0000000080001534 <enable_uart_interrupts>:
    80001534:	1101                	addi	sp,sp,-32
    80001536:	ec22                	sd	s0,24(sp)
    80001538:	1000                	addi	s0,sp,32
    8000153a:	fea43423          	sd	a0,-24(s0)
    8000153e:	87ae                	mv	a5,a1
    80001540:	fef403a3          	sb	a5,-25(s0)
    80001544:	fe843783          	ld	a5,-24(s0)
    80001548:	fe744703          	lbu	a4,-25(s0)
    8000154c:	00e78c23          	sb	a4,24(a5)
    80001550:	0001                	nop
    80001552:	6462                	ld	s0,24(sp)
    80001554:	6105                	addi	sp,sp,32
    80001556:	8082                	ret

0000000080001558 <set_uart_rx_threshold>:
    80001558:	1101                	addi	sp,sp,-32
    8000155a:	ec22                	sd	s0,24(sp)
    8000155c:	1000                	addi	s0,sp,32
    8000155e:	fea43423          	sd	a0,-24(s0)
    80001562:	87ae                	mv	a5,a1
    80001564:	fef403a3          	sb	a5,-25(s0)
    80001568:	fe843783          	ld	a5,-24(s0)
    8000156c:	fe744703          	lbu	a4,-25(s0)
    80001570:	02e78023          	sb	a4,32(a5)
    80001574:	0001                	nop
    80001576:	6462                	ld	s0,24(sp)
    80001578:	6105                	addi	sp,sp,32
    8000157a:	8082                	ret

000000008000157c <write_uart_character>:
    8000157c:	1101                	addi	sp,sp,-32
    8000157e:	ec22                	sd	s0,24(sp)
    80001580:	1000                	addi	s0,sp,32
    80001582:	fea43423          	sd	a0,-24(s0)
    80001586:	87ae                	mv	a5,a1
    80001588:	fef403a3          	sb	a5,-25(s0)
    8000158c:	0001                	nop
    8000158e:	fe843783          	ld	a5,-24(s0)
    80001592:	00c7c783          	lbu	a5,12(a5)
    80001596:	2781                	sext.w	a5,a5
    80001598:	8b89                	andi	a5,a5,2
    8000159a:	2781                	sext.w	a5,a5
    8000159c:	fbed                	bnez	a5,8000158e <write_uart_character+0x12>
    8000159e:	fe744783          	lbu	a5,-25(s0)
    800015a2:	0007871b          	sext.w	a4,a5
    800015a6:	fe843783          	ld	a5,-24(s0)
    800015aa:	c3d8                	sw	a4,4(a5)
    800015ac:	4781                	li	a5,0
    800015ae:	853e                	mv	a0,a5
    800015b0:	6462                	ld	s0,24(sp)
    800015b2:	6105                	addi	sp,sp,32
    800015b4:	8082                	ret

00000000800015b6 <write_uart_string>:
    800015b6:	7179                	addi	sp,sp,-48
    800015b8:	f406                	sd	ra,40(sp)
    800015ba:	f022                	sd	s0,32(sp)
    800015bc:	1800                	addi	s0,sp,48
    800015be:	fca43c23          	sd	a0,-40(s0)
    800015c2:	fcb43823          	sd	a1,-48(s0)
    800015c6:	fe042623          	sw	zero,-20(s0)
    800015ca:	fec42783          	lw	a5,-20(s0)
    800015ce:	0017871b          	addiw	a4,a5,1
    800015d2:	fee42623          	sw	a4,-20(s0)
    800015d6:	1782                	slli	a5,a5,0x20
    800015d8:	9381                	srli	a5,a5,0x20
    800015da:	fd043703          	ld	a4,-48(s0)
    800015de:	97ba                	add	a5,a5,a4
    800015e0:	0007c783          	lbu	a5,0(a5)
    800015e4:	fef405a3          	sb	a5,-21(s0)
    800015e8:	feb44783          	lbu	a5,-21(s0)
    800015ec:	85be                	mv	a1,a5
    800015ee:	fd843503          	ld	a0,-40(s0)
    800015f2:	f8bff0ef          	jal	ra,8000157c <write_uart_character>
    800015f6:	feb44783          	lbu	a5,-21(s0)
    800015fa:	0ff7f793          	andi	a5,a5,255
    800015fe:	f7f1                	bnez	a5,800015ca <write_uart_string+0x14>
    80001600:	4781                	li	a5,0
    80001602:	853e                	mv	a0,a5
    80001604:	70a2                	ld	ra,40(sp)
    80001606:	7402                	ld	s0,32(sp)
    80001608:	6145                	addi	sp,sp,48
    8000160a:	8082                	ret

000000008000160c <read_uart_character>:
    8000160c:	7179                	addi	sp,sp,-48
    8000160e:	f422                	sd	s0,40(sp)
    80001610:	1800                	addi	s0,sp,48
    80001612:	fca43c23          	sd	a0,-40(s0)
    80001616:	fcb43823          	sd	a1,-48(s0)
    8000161a:	fe0407a3          	sb	zero,-17(s0)
    8000161e:	0001                	nop
    80001620:	fd843783          	ld	a5,-40(s0)
    80001624:	00c7c783          	lbu	a5,12(a5)
    80001628:	2781                	sext.w	a5,a5
    8000162a:	8b91                	andi	a5,a5,4
    8000162c:	2781                	sext.w	a5,a5
    8000162e:	dbed                	beqz	a5,80001620 <read_uart_character+0x14>
    80001630:	fd843783          	ld	a5,-40(s0)
    80001634:	479c                	lw	a5,8(a5)
    80001636:	fef407a3          	sb	a5,-17(s0)
    8000163a:	fd043783          	ld	a5,-48(s0)
    8000163e:	fef44703          	lbu	a4,-17(s0)
    80001642:	00e78023          	sb	a4,0(a5)
    80001646:	4785                	li	a5,1
    80001648:	853e                	mv	a0,a5
    8000164a:	7422                	ld	s0,40(sp)
    8000164c:	6145                	addi	sp,sp,48
    8000164e:	8082                	ret

0000000080001650 <read_uart_string>:
    80001650:	7179                	addi	sp,sp,-48
    80001652:	f406                	sd	ra,40(sp)
    80001654:	f022                	sd	s0,32(sp)
    80001656:	1800                	addi	s0,sp,48
    80001658:	fca43c23          	sd	a0,-40(s0)
    8000165c:	fcb43823          	sd	a1,-48(s0)
    80001660:	fe042623          	sw	zero,-20(s0)
    80001664:	fe0405a3          	sb	zero,-21(s0)
    80001668:	0001                	nop
    8000166a:	fd843783          	ld	a5,-40(s0)
    8000166e:	00c7c783          	lbu	a5,12(a5)
    80001672:	2781                	sext.w	a5,a5
    80001674:	8b91                	andi	a5,a5,4
    80001676:	2781                	sext.w	a5,a5
    80001678:	dbed                	beqz	a5,8000166a <read_uart_string+0x1a>
    8000167a:	fd843783          	ld	a5,-40(s0)
    8000167e:	479c                	lw	a5,8(a5)
    80001680:	fef405a3          	sb	a5,-21(s0)
    80001684:	fec42783          	lw	a5,-20(s0)
    80001688:	0017871b          	addiw	a4,a5,1
    8000168c:	fee42623          	sw	a4,-20(s0)
    80001690:	1782                	slli	a5,a5,0x20
    80001692:	9381                	srli	a5,a5,0x20
    80001694:	fd043703          	ld	a4,-48(s0)
    80001698:	97ba                	add	a5,a5,a4
    8000169a:	feb44703          	lbu	a4,-21(s0)
    8000169e:	00e78023          	sb	a4,0(a5)
    800016a2:	feb44783          	lbu	a5,-21(s0)
    800016a6:	2781                	sext.w	a5,a5
    800016a8:	853e                	mv	a0,a5
    800016aa:	e05ff0ef          	jal	ra,800014ae <putchar>
    800016ae:	feb44783          	lbu	a5,-21(s0)
    800016b2:	0ff7f713          	andi	a4,a5,255
    800016b6:	47b5                	li	a5,13
    800016b8:	faf718e3          	bne	a4,a5,80001668 <read_uart_string+0x18>
    800016bc:	fec42783          	lw	a5,-20(s0)
    800016c0:	0017871b          	addiw	a4,a5,1
    800016c4:	fee42623          	sw	a4,-20(s0)
    800016c8:	1782                	slli	a5,a5,0x20
    800016ca:	9381                	srli	a5,a5,0x20
    800016cc:	fd043703          	ld	a4,-48(s0)
    800016d0:	97ba                	add	a5,a5,a4
    800016d2:	4729                	li	a4,10
    800016d4:	00e78023          	sb	a4,0(a5)
    800016d8:	fec42783          	lw	a5,-20(s0)
    800016dc:	0017871b          	addiw	a4,a5,1
    800016e0:	fee42623          	sw	a4,-20(s0)
    800016e4:	1782                	slli	a5,a5,0x20
    800016e6:	9381                	srli	a5,a5,0x20
    800016e8:	fd043703          	ld	a4,-48(s0)
    800016ec:	97ba                	add	a5,a5,a4
    800016ee:	00078023          	sb	zero,0(a5)
    800016f2:	fec42783          	lw	a5,-20(s0)
    800016f6:	0ff7f793          	andi	a5,a5,255
    800016fa:	853e                	mv	a0,a5
    800016fc:	70a2                	ld	ra,40(sp)
    800016fe:	7402                	ld	s0,32(sp)
    80001700:	6145                	addi	sp,sp,48
    80001702:	8082                	ret

0000000080001704 <flush_uart>:
    80001704:	7179                	addi	sp,sp,-48
    80001706:	f422                	sd	s0,40(sp)
    80001708:	1800                	addi	s0,sp,48
    8000170a:	fca43c23          	sd	a0,-40(s0)
    8000170e:	a031                	j	8000171a <flush_uart+0x16>
    80001710:	fd843783          	ld	a5,-40(s0)
    80001714:	479c                	lw	a5,8(a5)
    80001716:	fef407a3          	sb	a5,-17(s0)
    8000171a:	fd843783          	ld	a5,-40(s0)
    8000171e:	00c7c783          	lbu	a5,12(a5)
    80001722:	2781                	sext.w	a5,a5
    80001724:	8b91                	andi	a5,a5,4
    80001726:	2781                	sext.w	a5,a5
    80001728:	f7e5                	bnez	a5,80001710 <flush_uart+0xc>
    8000172a:	0001                	nop
    8000172c:	0001                	nop
    8000172e:	7422                	ld	s0,40(sp)
    80001730:	6145                	addi	sp,sp,48
    80001732:	8082                	ret

0000000080001734 <uart0_isr>:
    80001734:	1101                	addi	sp,sp,-32
    80001736:	ec06                	sd	ra,24(sp)
    80001738:	e822                	sd	s0,16(sp)
    8000173a:	1000                	addi	s0,sp,32
    8000173c:	fe042623          	sw	zero,-20(s0)
    80001740:	0000c797          	auipc	a5,0xc
    80001744:	ed078793          	addi	a5,a5,-304 # 8000d610 <uart_instance>
    80001748:	639c                	ld	a5,0(a5)
    8000174a:	00c7c783          	lbu	a5,12(a5)
    8000174e:	2781                	sext.w	a5,a5
    80001750:	1007f793          	andi	a5,a5,256
    80001754:	2781                	sext.w	a5,a5
    80001756:	cbbd                	beqz	a5,800017cc <uart0_isr+0x98>
    80001758:	a8b1                	j	800017b4 <uart0_isr+0x80>
    8000175a:	0000c797          	auipc	a5,0xc
    8000175e:	eb678793          	addi	a5,a5,-330 # 8000d610 <uart_instance>
    80001762:	639c                	ld	a5,0(a5)
    80001764:	479c                	lw	a5,8(a5)
    80001766:	fef42623          	sw	a5,-20(s0)
    8000176a:	84018793          	addi	a5,gp,-1984 # 80005fc0 <uart0_rcv_isr_count>
    8000176e:	439c                	lw	a5,0(a5)
    80001770:	2781                	sext.w	a5,a5
    80001772:	0017871b          	addiw	a4,a5,1
    80001776:	0007069b          	sext.w	a3,a4
    8000177a:	84018713          	addi	a4,gp,-1984 # 80005fc0 <uart0_rcv_isr_count>
    8000177e:	c314                	sw	a3,0(a4)
    80001780:	fec42703          	lw	a4,-20(s0)
    80001784:	0ff77713          	andi	a4,a4,255
    80001788:	00005697          	auipc	a3,0x5
    8000178c:	85068693          	addi	a3,a3,-1968 # 80005fd8 <u0_rcv_char>
    80001790:	1782                	slli	a5,a5,0x20
    80001792:	9381                	srli	a5,a5,0x20
    80001794:	97b6                	add	a5,a5,a3
    80001796:	00e78023          	sb	a4,0(a5)
    8000179a:	0000c797          	auipc	a5,0xc
    8000179e:	e7678793          	addi	a5,a5,-394 # 8000d610 <uart_instance>
    800017a2:	639c                	ld	a5,0(a5)
    800017a4:	fec42703          	lw	a4,-20(s0)
    800017a8:	0ff77713          	andi	a4,a4,255
    800017ac:	85ba                	mv	a1,a4
    800017ae:	853e                	mv	a0,a5
    800017b0:	dcdff0ef          	jal	ra,8000157c <write_uart_character>
    800017b4:	0000c797          	auipc	a5,0xc
    800017b8:	e5c78793          	addi	a5,a5,-420 # 8000d610 <uart_instance>
    800017bc:	639c                	ld	a5,0(a5)
    800017be:	00c7c783          	lbu	a5,12(a5)
    800017c2:	2781                	sext.w	a5,a5
    800017c4:	8b91                	andi	a5,a5,4
    800017c6:	2781                	sext.w	a5,a5
    800017c8:	fbc9                	bnez	a5,8000175a <uart0_isr+0x26>
    800017ca:	a2a1                	j	80001912 <uart0_isr+0x1de>
    800017cc:	0000c797          	auipc	a5,0xc
    800017d0:	e4478793          	addi	a5,a5,-444 # 8000d610 <uart_instance>
    800017d4:	639c                	ld	a5,0(a5)
    800017d6:	00c7c783          	lbu	a5,12(a5)
    800017da:	2781                	sext.w	a5,a5
    800017dc:	8ba1                	andi	a5,a5,8
    800017de:	2781                	sext.w	a5,a5
    800017e0:	c3e9                	beqz	a5,800018a2 <uart0_isr+0x16e>
    800017e2:	45c1                	li	a1,16
    800017e4:	000407b7          	lui	a5,0x40
    800017e8:	10078513          	addi	a0,a5,256 # 40100 <_tbss_end+0x40100>
    800017ec:	c5eff0ef          	jal	ra,80000c4a <write_word>
    800017f0:	000407b7          	lui	a5,0x40
    800017f4:	10878513          	addi	a0,a5,264 # 40108 <_tbss_end+0x40108>
    800017f8:	c1aff0ef          	jal	ra,80000c12 <read_word>
    800017fc:	87aa                	mv	a5,a0
    800017fe:	0107e793          	ori	a5,a5,16
    80001802:	85be                	mv	a1,a5
    80001804:	000407b7          	lui	a5,0x40
    80001808:	10878513          	addi	a0,a5,264 # 40108 <_tbss_end+0x40108>
    8000180c:	c3eff0ef          	jal	ra,80000c4a <write_word>
    80001810:	a8b1                	j	8000186c <uart0_isr+0x138>
    80001812:	0000c797          	auipc	a5,0xc
    80001816:	dfe78793          	addi	a5,a5,-514 # 8000d610 <uart_instance>
    8000181a:	639c                	ld	a5,0(a5)
    8000181c:	479c                	lw	a5,8(a5)
    8000181e:	fef42623          	sw	a5,-20(s0)
    80001822:	84018793          	addi	a5,gp,-1984 # 80005fc0 <uart0_rcv_isr_count>
    80001826:	439c                	lw	a5,0(a5)
    80001828:	2781                	sext.w	a5,a5
    8000182a:	0017871b          	addiw	a4,a5,1
    8000182e:	0007069b          	sext.w	a3,a4
    80001832:	84018713          	addi	a4,gp,-1984 # 80005fc0 <uart0_rcv_isr_count>
    80001836:	c314                	sw	a3,0(a4)
    80001838:	fec42703          	lw	a4,-20(s0)
    8000183c:	0ff77713          	andi	a4,a4,255
    80001840:	00004697          	auipc	a3,0x4
    80001844:	79868693          	addi	a3,a3,1944 # 80005fd8 <u0_rcv_char>
    80001848:	1782                	slli	a5,a5,0x20
    8000184a:	9381                	srli	a5,a5,0x20
    8000184c:	97b6                	add	a5,a5,a3
    8000184e:	00e78023          	sb	a4,0(a5)
    80001852:	0000c797          	auipc	a5,0xc
    80001856:	dbe78793          	addi	a5,a5,-578 # 8000d610 <uart_instance>
    8000185a:	639c                	ld	a5,0(a5)
    8000185c:	fec42703          	lw	a4,-20(s0)
    80001860:	0ff77713          	andi	a4,a4,255
    80001864:	85ba                	mv	a1,a4
    80001866:	853e                	mv	a0,a5
    80001868:	d15ff0ef          	jal	ra,8000157c <write_uart_character>
    8000186c:	0000c797          	auipc	a5,0xc
    80001870:	da478793          	addi	a5,a5,-604 # 8000d610 <uart_instance>
    80001874:	639c                	ld	a5,0(a5)
    80001876:	00c7c783          	lbu	a5,12(a5)
    8000187a:	2781                	sext.w	a5,a5
    8000187c:	8b91                	andi	a5,a5,4
    8000187e:	2781                	sext.w	a5,a5
    80001880:	fbc9                	bnez	a5,80001812 <uart0_isr+0xde>
    80001882:	000407b7          	lui	a5,0x40
    80001886:	10878513          	addi	a0,a5,264 # 40108 <_tbss_end+0x40108>
    8000188a:	b88ff0ef          	jal	ra,80000c12 <read_word>
    8000188e:	87aa                	mv	a5,a0
    80001890:	9bbd                	andi	a5,a5,-17
    80001892:	85be                	mv	a1,a5
    80001894:	000407b7          	lui	a5,0x40
    80001898:	10878513          	addi	a0,a5,264 # 40108 <_tbss_end+0x40108>
    8000189c:	baeff0ef          	jal	ra,80000c4a <write_word>
    800018a0:	a88d                	j	80001912 <uart0_isr+0x1de>
    800018a2:	0000c797          	auipc	a5,0xc
    800018a6:	d6e78793          	addi	a5,a5,-658 # 8000d610 <uart_instance>
    800018aa:	639c                	ld	a5,0(a5)
    800018ac:	00c7c783          	lbu	a5,12(a5)
    800018b0:	2781                	sext.w	a5,a5
    800018b2:	8b91                	andi	a5,a5,4
    800018b4:	2781                	sext.w	a5,a5
    800018b6:	cfb1                	beqz	a5,80001912 <uart0_isr+0x1de>
    800018b8:	0000c797          	auipc	a5,0xc
    800018bc:	d5878793          	addi	a5,a5,-680 # 8000d610 <uart_instance>
    800018c0:	639c                	ld	a5,0(a5)
    800018c2:	479c                	lw	a5,8(a5)
    800018c4:	fef42623          	sw	a5,-20(s0)
    800018c8:	84018793          	addi	a5,gp,-1984 # 80005fc0 <uart0_rcv_isr_count>
    800018cc:	439c                	lw	a5,0(a5)
    800018ce:	2781                	sext.w	a5,a5
    800018d0:	0017871b          	addiw	a4,a5,1
    800018d4:	0007069b          	sext.w	a3,a4
    800018d8:	84018713          	addi	a4,gp,-1984 # 80005fc0 <uart0_rcv_isr_count>
    800018dc:	c314                	sw	a3,0(a4)
    800018de:	fec42703          	lw	a4,-20(s0)
    800018e2:	0ff77713          	andi	a4,a4,255
    800018e6:	00004697          	auipc	a3,0x4
    800018ea:	6f268693          	addi	a3,a3,1778 # 80005fd8 <u0_rcv_char>
    800018ee:	1782                	slli	a5,a5,0x20
    800018f0:	9381                	srli	a5,a5,0x20
    800018f2:	97b6                	add	a5,a5,a3
    800018f4:	00e78023          	sb	a4,0(a5)
    800018f8:	0000c797          	auipc	a5,0xc
    800018fc:	d1878793          	addi	a5,a5,-744 # 8000d610 <uart_instance>
    80001900:	639c                	ld	a5,0(a5)
    80001902:	fec42703          	lw	a4,-20(s0)
    80001906:	0ff77713          	andi	a4,a4,255
    8000190a:	85ba                	mv	a1,a4
    8000190c:	853e                	mv	a0,a5
    8000190e:	c6fff0ef          	jal	ra,8000157c <write_uart_character>
    80001912:	4781                	li	a5,0
    80001914:	853e                	mv	a0,a5
    80001916:	60e2                	ld	ra,24(sp)
    80001918:	6442                	ld	s0,16(sp)
    8000191a:	6105                	addi	sp,sp,32
    8000191c:	8082                	ret

000000008000191e <uart1_isr>:
    8000191e:	1101                	addi	sp,sp,-32
    80001920:	ec06                	sd	ra,24(sp)
    80001922:	e822                	sd	s0,16(sp)
    80001924:	1000                	addi	s0,sp,32
    80001926:	fe042623          	sw	zero,-20(s0)
    8000192a:	0000c797          	auipc	a5,0xc
    8000192e:	ce678793          	addi	a5,a5,-794 # 8000d610 <uart_instance>
    80001932:	679c                	ld	a5,8(a5)
    80001934:	00c7c783          	lbu	a5,12(a5)
    80001938:	2781                	sext.w	a5,a5
    8000193a:	1007f793          	andi	a5,a5,256
    8000193e:	2781                	sext.w	a5,a5
    80001940:	cbbd                	beqz	a5,800019b6 <uart1_isr+0x98>
    80001942:	a8b1                	j	8000199e <uart1_isr+0x80>
    80001944:	0000c797          	auipc	a5,0xc
    80001948:	ccc78793          	addi	a5,a5,-820 # 8000d610 <uart_instance>
    8000194c:	679c                	ld	a5,8(a5)
    8000194e:	479c                	lw	a5,8(a5)
    80001950:	fef42623          	sw	a5,-20(s0)
    80001954:	84818793          	addi	a5,gp,-1976 # 80005fc8 <uart1_rcv_isr_count>
    80001958:	439c                	lw	a5,0(a5)
    8000195a:	2781                	sext.w	a5,a5
    8000195c:	0017871b          	addiw	a4,a5,1
    80001960:	0007069b          	sext.w	a3,a4
    80001964:	84818713          	addi	a4,gp,-1976 # 80005fc8 <uart1_rcv_isr_count>
    80001968:	c314                	sw	a3,0(a4)
    8000196a:	fec42703          	lw	a4,-20(s0)
    8000196e:	0ff77713          	andi	a4,a4,255
    80001972:	00007697          	auipc	a3,0x7
    80001976:	d7668693          	addi	a3,a3,-650 # 800086e8 <u1_rcv_char>
    8000197a:	1782                	slli	a5,a5,0x20
    8000197c:	9381                	srli	a5,a5,0x20
    8000197e:	97b6                	add	a5,a5,a3
    80001980:	00e78023          	sb	a4,0(a5)
    80001984:	0000c797          	auipc	a5,0xc
    80001988:	c8c78793          	addi	a5,a5,-884 # 8000d610 <uart_instance>
    8000198c:	679c                	ld	a5,8(a5)
    8000198e:	fec42703          	lw	a4,-20(s0)
    80001992:	0ff77713          	andi	a4,a4,255
    80001996:	85ba                	mv	a1,a4
    80001998:	853e                	mv	a0,a5
    8000199a:	be3ff0ef          	jal	ra,8000157c <write_uart_character>
    8000199e:	0000c797          	auipc	a5,0xc
    800019a2:	c7278793          	addi	a5,a5,-910 # 8000d610 <uart_instance>
    800019a6:	679c                	ld	a5,8(a5)
    800019a8:	00c7c783          	lbu	a5,12(a5)
    800019ac:	2781                	sext.w	a5,a5
    800019ae:	8b91                	andi	a5,a5,4
    800019b0:	2781                	sext.w	a5,a5
    800019b2:	fbc9                	bnez	a5,80001944 <uart1_isr+0x26>
    800019b4:	a2a1                	j	80001afc <uart1_isr+0x1de>
    800019b6:	0000c797          	auipc	a5,0xc
    800019ba:	c5a78793          	addi	a5,a5,-934 # 8000d610 <uart_instance>
    800019be:	679c                	ld	a5,8(a5)
    800019c0:	00c7c783          	lbu	a5,12(a5)
    800019c4:	2781                	sext.w	a5,a5
    800019c6:	8ba1                	andi	a5,a5,8
    800019c8:	2781                	sext.w	a5,a5
    800019ca:	c3e9                	beqz	a5,80001a8c <uart1_isr+0x16e>
    800019cc:	45c1                	li	a1,16
    800019ce:	000407b7          	lui	a5,0x40
    800019d2:	10078513          	addi	a0,a5,256 # 40100 <_tbss_end+0x40100>
    800019d6:	a74ff0ef          	jal	ra,80000c4a <write_word>
    800019da:	000407b7          	lui	a5,0x40
    800019de:	10878513          	addi	a0,a5,264 # 40108 <_tbss_end+0x40108>
    800019e2:	a30ff0ef          	jal	ra,80000c12 <read_word>
    800019e6:	87aa                	mv	a5,a0
    800019e8:	0107e793          	ori	a5,a5,16
    800019ec:	85be                	mv	a1,a5
    800019ee:	000407b7          	lui	a5,0x40
    800019f2:	10878513          	addi	a0,a5,264 # 40108 <_tbss_end+0x40108>
    800019f6:	a54ff0ef          	jal	ra,80000c4a <write_word>
    800019fa:	a8b1                	j	80001a56 <uart1_isr+0x138>
    800019fc:	0000c797          	auipc	a5,0xc
    80001a00:	c1478793          	addi	a5,a5,-1004 # 8000d610 <uart_instance>
    80001a04:	679c                	ld	a5,8(a5)
    80001a06:	479c                	lw	a5,8(a5)
    80001a08:	fef42623          	sw	a5,-20(s0)
    80001a0c:	84818793          	addi	a5,gp,-1976 # 80005fc8 <uart1_rcv_isr_count>
    80001a10:	439c                	lw	a5,0(a5)
    80001a12:	2781                	sext.w	a5,a5
    80001a14:	0017871b          	addiw	a4,a5,1
    80001a18:	0007069b          	sext.w	a3,a4
    80001a1c:	84818713          	addi	a4,gp,-1976 # 80005fc8 <uart1_rcv_isr_count>
    80001a20:	c314                	sw	a3,0(a4)
    80001a22:	fec42703          	lw	a4,-20(s0)
    80001a26:	0ff77713          	andi	a4,a4,255
    80001a2a:	00007697          	auipc	a3,0x7
    80001a2e:	cbe68693          	addi	a3,a3,-834 # 800086e8 <u1_rcv_char>
    80001a32:	1782                	slli	a5,a5,0x20
    80001a34:	9381                	srli	a5,a5,0x20
    80001a36:	97b6                	add	a5,a5,a3
    80001a38:	00e78023          	sb	a4,0(a5)
    80001a3c:	0000c797          	auipc	a5,0xc
    80001a40:	bd478793          	addi	a5,a5,-1068 # 8000d610 <uart_instance>
    80001a44:	679c                	ld	a5,8(a5)
    80001a46:	fec42703          	lw	a4,-20(s0)
    80001a4a:	0ff77713          	andi	a4,a4,255
    80001a4e:	85ba                	mv	a1,a4
    80001a50:	853e                	mv	a0,a5
    80001a52:	b2bff0ef          	jal	ra,8000157c <write_uart_character>
    80001a56:	0000c797          	auipc	a5,0xc
    80001a5a:	bba78793          	addi	a5,a5,-1094 # 8000d610 <uart_instance>
    80001a5e:	679c                	ld	a5,8(a5)
    80001a60:	00c7c783          	lbu	a5,12(a5)
    80001a64:	2781                	sext.w	a5,a5
    80001a66:	8b91                	andi	a5,a5,4
    80001a68:	2781                	sext.w	a5,a5
    80001a6a:	fbc9                	bnez	a5,800019fc <uart1_isr+0xde>
    80001a6c:	000407b7          	lui	a5,0x40
    80001a70:	10878513          	addi	a0,a5,264 # 40108 <_tbss_end+0x40108>
    80001a74:	99eff0ef          	jal	ra,80000c12 <read_word>
    80001a78:	87aa                	mv	a5,a0
    80001a7a:	9bbd                	andi	a5,a5,-17
    80001a7c:	85be                	mv	a1,a5
    80001a7e:	000407b7          	lui	a5,0x40
    80001a82:	10878513          	addi	a0,a5,264 # 40108 <_tbss_end+0x40108>
    80001a86:	9c4ff0ef          	jal	ra,80000c4a <write_word>
    80001a8a:	a88d                	j	80001afc <uart1_isr+0x1de>
    80001a8c:	0000c797          	auipc	a5,0xc
    80001a90:	b8478793          	addi	a5,a5,-1148 # 8000d610 <uart_instance>
    80001a94:	679c                	ld	a5,8(a5)
    80001a96:	00c7c783          	lbu	a5,12(a5)
    80001a9a:	2781                	sext.w	a5,a5
    80001a9c:	8b91                	andi	a5,a5,4
    80001a9e:	2781                	sext.w	a5,a5
    80001aa0:	cfb1                	beqz	a5,80001afc <uart1_isr+0x1de>
    80001aa2:	0000c797          	auipc	a5,0xc
    80001aa6:	b6e78793          	addi	a5,a5,-1170 # 8000d610 <uart_instance>
    80001aaa:	679c                	ld	a5,8(a5)
    80001aac:	479c                	lw	a5,8(a5)
    80001aae:	fef42623          	sw	a5,-20(s0)
    80001ab2:	84818793          	addi	a5,gp,-1976 # 80005fc8 <uart1_rcv_isr_count>
    80001ab6:	439c                	lw	a5,0(a5)
    80001ab8:	2781                	sext.w	a5,a5
    80001aba:	0017871b          	addiw	a4,a5,1
    80001abe:	0007069b          	sext.w	a3,a4
    80001ac2:	84818713          	addi	a4,gp,-1976 # 80005fc8 <uart1_rcv_isr_count>
    80001ac6:	c314                	sw	a3,0(a4)
    80001ac8:	fec42703          	lw	a4,-20(s0)
    80001acc:	0ff77713          	andi	a4,a4,255
    80001ad0:	00007697          	auipc	a3,0x7
    80001ad4:	c1868693          	addi	a3,a3,-1000 # 800086e8 <u1_rcv_char>
    80001ad8:	1782                	slli	a5,a5,0x20
    80001ada:	9381                	srli	a5,a5,0x20
    80001adc:	97b6                	add	a5,a5,a3
    80001ade:	00e78023          	sb	a4,0(a5)
    80001ae2:	0000c797          	auipc	a5,0xc
    80001ae6:	b2e78793          	addi	a5,a5,-1234 # 8000d610 <uart_instance>
    80001aea:	679c                	ld	a5,8(a5)
    80001aec:	fec42703          	lw	a4,-20(s0)
    80001af0:	0ff77713          	andi	a4,a4,255
    80001af4:	85ba                	mv	a1,a4
    80001af6:	853e                	mv	a0,a5
    80001af8:	a85ff0ef          	jal	ra,8000157c <write_uart_character>
    80001afc:	4781                	li	a5,0
    80001afe:	853e                	mv	a0,a5
    80001b00:	60e2                	ld	ra,24(sp)
    80001b02:	6442                	ld	s0,16(sp)
    80001b04:	6105                	addi	sp,sp,32
    80001b06:	8082                	ret

0000000080001b08 <uart2_isr>:
    80001b08:	1101                	addi	sp,sp,-32
    80001b0a:	ec06                	sd	ra,24(sp)
    80001b0c:	e822                	sd	s0,16(sp)
    80001b0e:	1000                	addi	s0,sp,32
    80001b10:	fe042623          	sw	zero,-20(s0)
    80001b14:	0000c797          	auipc	a5,0xc
    80001b18:	afc78793          	addi	a5,a5,-1284 # 8000d610 <uart_instance>
    80001b1c:	6b9c                	ld	a5,16(a5)
    80001b1e:	00c7c783          	lbu	a5,12(a5)
    80001b22:	2781                	sext.w	a5,a5
    80001b24:	1007f793          	andi	a5,a5,256
    80001b28:	2781                	sext.w	a5,a5
    80001b2a:	cbbd                	beqz	a5,80001ba0 <uart2_isr+0x98>
    80001b2c:	a8b1                	j	80001b88 <uart2_isr+0x80>
    80001b2e:	0000c797          	auipc	a5,0xc
    80001b32:	ae278793          	addi	a5,a5,-1310 # 8000d610 <uart_instance>
    80001b36:	6b9c                	ld	a5,16(a5)
    80001b38:	479c                	lw	a5,8(a5)
    80001b3a:	fef42623          	sw	a5,-20(s0)
    80001b3e:	85018793          	addi	a5,gp,-1968 # 80005fd0 <uart2_rcv_isr_count>
    80001b42:	439c                	lw	a5,0(a5)
    80001b44:	2781                	sext.w	a5,a5
    80001b46:	0017871b          	addiw	a4,a5,1
    80001b4a:	0007069b          	sext.w	a3,a4
    80001b4e:	85018713          	addi	a4,gp,-1968 # 80005fd0 <uart2_rcv_isr_count>
    80001b52:	c314                	sw	a3,0(a4)
    80001b54:	fec42703          	lw	a4,-20(s0)
    80001b58:	0ff77713          	andi	a4,a4,255
    80001b5c:	00009697          	auipc	a3,0x9
    80001b60:	29c68693          	addi	a3,a3,668 # 8000adf8 <u2_rcv_char>
    80001b64:	1782                	slli	a5,a5,0x20
    80001b66:	9381                	srli	a5,a5,0x20
    80001b68:	97b6                	add	a5,a5,a3
    80001b6a:	00e78023          	sb	a4,0(a5)
    80001b6e:	0000c797          	auipc	a5,0xc
    80001b72:	aa278793          	addi	a5,a5,-1374 # 8000d610 <uart_instance>
    80001b76:	6b9c                	ld	a5,16(a5)
    80001b78:	fec42703          	lw	a4,-20(s0)
    80001b7c:	0ff77713          	andi	a4,a4,255
    80001b80:	85ba                	mv	a1,a4
    80001b82:	853e                	mv	a0,a5
    80001b84:	9f9ff0ef          	jal	ra,8000157c <write_uart_character>
    80001b88:	0000c797          	auipc	a5,0xc
    80001b8c:	a8878793          	addi	a5,a5,-1400 # 8000d610 <uart_instance>
    80001b90:	6b9c                	ld	a5,16(a5)
    80001b92:	00c7c783          	lbu	a5,12(a5)
    80001b96:	2781                	sext.w	a5,a5
    80001b98:	8b91                	andi	a5,a5,4
    80001b9a:	2781                	sext.w	a5,a5
    80001b9c:	fbc9                	bnez	a5,80001b2e <uart2_isr+0x26>
    80001b9e:	a2a1                	j	80001ce6 <uart2_isr+0x1de>
    80001ba0:	0000c797          	auipc	a5,0xc
    80001ba4:	a7078793          	addi	a5,a5,-1424 # 8000d610 <uart_instance>
    80001ba8:	6b9c                	ld	a5,16(a5)
    80001baa:	00c7c783          	lbu	a5,12(a5)
    80001bae:	2781                	sext.w	a5,a5
    80001bb0:	8ba1                	andi	a5,a5,8
    80001bb2:	2781                	sext.w	a5,a5
    80001bb4:	c3e9                	beqz	a5,80001c76 <uart2_isr+0x16e>
    80001bb6:	45c1                	li	a1,16
    80001bb8:	000407b7          	lui	a5,0x40
    80001bbc:	10078513          	addi	a0,a5,256 # 40100 <_tbss_end+0x40100>
    80001bc0:	88aff0ef          	jal	ra,80000c4a <write_word>
    80001bc4:	000407b7          	lui	a5,0x40
    80001bc8:	10878513          	addi	a0,a5,264 # 40108 <_tbss_end+0x40108>
    80001bcc:	846ff0ef          	jal	ra,80000c12 <read_word>
    80001bd0:	87aa                	mv	a5,a0
    80001bd2:	0107e793          	ori	a5,a5,16
    80001bd6:	85be                	mv	a1,a5
    80001bd8:	000407b7          	lui	a5,0x40
    80001bdc:	10878513          	addi	a0,a5,264 # 40108 <_tbss_end+0x40108>
    80001be0:	86aff0ef          	jal	ra,80000c4a <write_word>
    80001be4:	a8b1                	j	80001c40 <uart2_isr+0x138>
    80001be6:	0000c797          	auipc	a5,0xc
    80001bea:	a2a78793          	addi	a5,a5,-1494 # 8000d610 <uart_instance>
    80001bee:	6b9c                	ld	a5,16(a5)
    80001bf0:	479c                	lw	a5,8(a5)
    80001bf2:	fef42623          	sw	a5,-20(s0)
    80001bf6:	85018793          	addi	a5,gp,-1968 # 80005fd0 <uart2_rcv_isr_count>
    80001bfa:	439c                	lw	a5,0(a5)
    80001bfc:	2781                	sext.w	a5,a5
    80001bfe:	0017871b          	addiw	a4,a5,1
    80001c02:	0007069b          	sext.w	a3,a4
    80001c06:	85018713          	addi	a4,gp,-1968 # 80005fd0 <uart2_rcv_isr_count>
    80001c0a:	c314                	sw	a3,0(a4)
    80001c0c:	fec42703          	lw	a4,-20(s0)
    80001c10:	0ff77713          	andi	a4,a4,255
    80001c14:	00009697          	auipc	a3,0x9
    80001c18:	1e468693          	addi	a3,a3,484 # 8000adf8 <u2_rcv_char>
    80001c1c:	1782                	slli	a5,a5,0x20
    80001c1e:	9381                	srli	a5,a5,0x20
    80001c20:	97b6                	add	a5,a5,a3
    80001c22:	00e78023          	sb	a4,0(a5)
    80001c26:	0000c797          	auipc	a5,0xc
    80001c2a:	9ea78793          	addi	a5,a5,-1558 # 8000d610 <uart_instance>
    80001c2e:	6b9c                	ld	a5,16(a5)
    80001c30:	fec42703          	lw	a4,-20(s0)
    80001c34:	0ff77713          	andi	a4,a4,255
    80001c38:	85ba                	mv	a1,a4
    80001c3a:	853e                	mv	a0,a5
    80001c3c:	941ff0ef          	jal	ra,8000157c <write_uart_character>
    80001c40:	0000c797          	auipc	a5,0xc
    80001c44:	9d078793          	addi	a5,a5,-1584 # 8000d610 <uart_instance>
    80001c48:	6b9c                	ld	a5,16(a5)
    80001c4a:	00c7c783          	lbu	a5,12(a5)
    80001c4e:	2781                	sext.w	a5,a5
    80001c50:	8b91                	andi	a5,a5,4
    80001c52:	2781                	sext.w	a5,a5
    80001c54:	fbc9                	bnez	a5,80001be6 <uart2_isr+0xde>
    80001c56:	000407b7          	lui	a5,0x40
    80001c5a:	10878513          	addi	a0,a5,264 # 40108 <_tbss_end+0x40108>
    80001c5e:	fb5fe0ef          	jal	ra,80000c12 <read_word>
    80001c62:	87aa                	mv	a5,a0
    80001c64:	9bbd                	andi	a5,a5,-17
    80001c66:	85be                	mv	a1,a5
    80001c68:	000407b7          	lui	a5,0x40
    80001c6c:	10878513          	addi	a0,a5,264 # 40108 <_tbss_end+0x40108>
    80001c70:	fdbfe0ef          	jal	ra,80000c4a <write_word>
    80001c74:	a88d                	j	80001ce6 <uart2_isr+0x1de>
    80001c76:	0000c797          	auipc	a5,0xc
    80001c7a:	99a78793          	addi	a5,a5,-1638 # 8000d610 <uart_instance>
    80001c7e:	6b9c                	ld	a5,16(a5)
    80001c80:	00c7c783          	lbu	a5,12(a5)
    80001c84:	2781                	sext.w	a5,a5
    80001c86:	8b91                	andi	a5,a5,4
    80001c88:	2781                	sext.w	a5,a5
    80001c8a:	cfb1                	beqz	a5,80001ce6 <uart2_isr+0x1de>
    80001c8c:	0000c797          	auipc	a5,0xc
    80001c90:	98478793          	addi	a5,a5,-1660 # 8000d610 <uart_instance>
    80001c94:	6b9c                	ld	a5,16(a5)
    80001c96:	479c                	lw	a5,8(a5)
    80001c98:	fef42623          	sw	a5,-20(s0)
    80001c9c:	85018793          	addi	a5,gp,-1968 # 80005fd0 <uart2_rcv_isr_count>
    80001ca0:	439c                	lw	a5,0(a5)
    80001ca2:	2781                	sext.w	a5,a5
    80001ca4:	0017871b          	addiw	a4,a5,1
    80001ca8:	0007069b          	sext.w	a3,a4
    80001cac:	85018713          	addi	a4,gp,-1968 # 80005fd0 <uart2_rcv_isr_count>
    80001cb0:	c314                	sw	a3,0(a4)
    80001cb2:	fec42703          	lw	a4,-20(s0)
    80001cb6:	0ff77713          	andi	a4,a4,255
    80001cba:	00009697          	auipc	a3,0x9
    80001cbe:	13e68693          	addi	a3,a3,318 # 8000adf8 <u2_rcv_char>
    80001cc2:	1782                	slli	a5,a5,0x20
    80001cc4:	9381                	srli	a5,a5,0x20
    80001cc6:	97b6                	add	a5,a5,a3
    80001cc8:	00e78023          	sb	a4,0(a5)
    80001ccc:	0000c797          	auipc	a5,0xc
    80001cd0:	94478793          	addi	a5,a5,-1724 # 8000d610 <uart_instance>
    80001cd4:	6b9c                	ld	a5,16(a5)
    80001cd6:	fec42703          	lw	a4,-20(s0)
    80001cda:	0ff77713          	andi	a4,a4,255
    80001cde:	85ba                	mv	a1,a4
    80001ce0:	853e                	mv	a0,a5
    80001ce2:	89bff0ef          	jal	ra,8000157c <write_uart_character>
    80001ce6:	4781                	li	a5,0
    80001ce8:	853e                	mv	a0,a5
    80001cea:	60e2                	ld	ra,24(sp)
    80001cec:	6442                	ld	s0,16(sp)
    80001cee:	6105                	addi	sp,sp,32
    80001cf0:	8082                	ret

0000000080001cf2 <i2c_init>:
    80001cf2:	1101                	addi	sp,sp,-32
    80001cf4:	ec22                	sd	s0,24(sp)
    80001cf6:	1000                	addi	s0,sp,32
    80001cf8:	fe042623          	sw	zero,-20(s0)
    80001cfc:	a835                	j	80001d38 <i2c_init+0x46>
    80001cfe:	fec42703          	lw	a4,-20(s0)
    80001d02:	87ba                	mv	a5,a4
    80001d04:	0027979b          	slliw	a5,a5,0x2
    80001d08:	9fb9                	addw	a5,a5,a4
    80001d0a:	00a7979b          	slliw	a5,a5,0xa
    80001d0e:	0007871b          	sext.w	a4,a5
    80001d12:	000407b7          	lui	a5,0x40
    80001d16:	9fb9                	addw	a5,a5,a4
    80001d18:	2781                	sext.w	a5,a5
    80001d1a:	86be                	mv	a3,a5
    80001d1c:	0000c717          	auipc	a4,0xc
    80001d20:	90c70713          	addi	a4,a4,-1780 # 8000d628 <i2c_instance>
    80001d24:	fec42783          	lw	a5,-20(s0)
    80001d28:	078e                	slli	a5,a5,0x3
    80001d2a:	97ba                	add	a5,a5,a4
    80001d2c:	e394                	sd	a3,0(a5)
    80001d2e:	fec42783          	lw	a5,-20(s0)
    80001d32:	2785                	addiw	a5,a5,1
    80001d34:	fef42623          	sw	a5,-20(s0)
    80001d38:	fec42783          	lw	a5,-20(s0)
    80001d3c:	0007871b          	sext.w	a4,a5
    80001d40:	4785                	li	a5,1
    80001d42:	fae7dee3          	bge	a5,a4,80001cfe <i2c_init+0xc>
    80001d46:	0001                	nop
    80001d48:	0001                	nop
    80001d4a:	6462                	ld	s0,24(sp)
    80001d4c:	6105                	addi	sp,sp,32
    80001d4e:	8082                	ret

0000000080001d50 <config_i2c>:
    80001d50:	7179                	addi	sp,sp,-48
    80001d52:	f406                	sd	ra,40(sp)
    80001d54:	f022                	sd	s0,32(sp)
    80001d56:	1800                	addi	s0,sp,48
    80001d58:	fca43c23          	sd	a0,-40(s0)
    80001d5c:	87ae                	mv	a5,a1
    80001d5e:	8732                	mv	a4,a2
    80001d60:	fcf40ba3          	sb	a5,-41(s0)
    80001d64:	87ba                	mv	a5,a4
    80001d66:	fcf40b23          	sb	a5,-42(s0)
    80001d6a:	fe0407a3          	sb	zero,-17(s0)
    80001d6e:	00003517          	auipc	a0,0x3
    80001d72:	e6a50513          	addi	a0,a0,-406 # 80004bd8 <__rodata_start+0x350>
    80001d76:	8d6ff0ef          	jal	ra,80000e4c <log_debug>
    80001d7a:	fd744783          	lbu	a5,-41(s0)
    80001d7e:	0007871b          	sext.w	a4,a5
    80001d82:	fd843783          	ld	a5,-40(s0)
    80001d86:	439c                	lw	a5,0(a5)
    80001d88:	06f70063          	beq	a4,a5,80001de8 <config_i2c+0x98>
    80001d8c:	fd744783          	lbu	a5,-41(s0)
    80001d90:	0007871b          	sext.w	a4,a5
    80001d94:	fd843783          	ld	a5,-40(s0)
    80001d98:	c398                	sw	a4,0(a5)
    80001d9a:	fd843783          	ld	a5,-40(s0)
    80001d9e:	439c                	lw	a5,0(a5)
    80001da0:	fef407a3          	sb	a5,-17(s0)
    80001da4:	fef44703          	lbu	a4,-17(s0)
    80001da8:	fd744783          	lbu	a5,-41(s0)
    80001dac:	0ff77713          	andi	a4,a4,255
    80001db0:	0ff7f793          	andi	a5,a5,255
    80001db4:	02f70463          	beq	a4,a5,80001ddc <config_i2c+0x8c>
    80001db8:	fd744783          	lbu	a5,-41(s0)
    80001dbc:	0007871b          	sext.w	a4,a5
    80001dc0:	fd843783          	ld	a5,-40(s0)
    80001dc4:	439c                	lw	a5,0(a5)
    80001dc6:	863e                	mv	a2,a5
    80001dc8:	85ba                	mv	a1,a4
    80001dca:	00003517          	auipc	a0,0x3
    80001dce:	e3650513          	addi	a0,a0,-458 # 80004c00 <__rodata_start+0x378>
    80001dd2:	8e8ff0ef          	jal	ra,80000eba <log_error>
    80001dd6:	05200793          	li	a5,82
    80001dda:	aa99                	j	80001f30 <config_i2c+0x1e0>
    80001ddc:	00003517          	auipc	a0,0x3
    80001de0:	e7450513          	addi	a0,a0,-396 # 80004c50 <__rodata_start+0x3c8>
    80001de4:	868ff0ef          	jal	ra,80000e4c <log_debug>
    80001de8:	fd644783          	lbu	a5,-42(s0)
    80001dec:	0007871b          	sext.w	a4,a5
    80001df0:	fd843783          	ld	a5,-40(s0)
    80001df4:	5f9c                	lw	a5,56(a5)
    80001df6:	04f70f63          	beq	a4,a5,80001e54 <config_i2c+0x104>
    80001dfa:	fd644783          	lbu	a5,-42(s0)
    80001dfe:	0007871b          	sext.w	a4,a5
    80001e02:	fd843783          	ld	a5,-40(s0)
    80001e06:	df98                	sw	a4,56(a5)
    80001e08:	fd843783          	ld	a5,-40(s0)
    80001e0c:	5f9c                	lw	a5,56(a5)
    80001e0e:	fef407a3          	sb	a5,-17(s0)
    80001e12:	fef44703          	lbu	a4,-17(s0)
    80001e16:	fd644783          	lbu	a5,-42(s0)
    80001e1a:	0ff77713          	andi	a4,a4,255
    80001e1e:	0ff7f793          	andi	a5,a5,255
    80001e22:	02f70363          	beq	a4,a5,80001e48 <config_i2c+0xf8>
    80001e26:	fd644783          	lbu	a5,-42(s0)
    80001e2a:	2781                	sext.w	a5,a5
    80001e2c:	fef44703          	lbu	a4,-17(s0)
    80001e30:	2701                	sext.w	a4,a4
    80001e32:	863a                	mv	a2,a4
    80001e34:	85be                	mv	a1,a5
    80001e36:	00003517          	auipc	a0,0x3
    80001e3a:	e4250513          	addi	a0,a0,-446 # 80004c78 <__rodata_start+0x3f0>
    80001e3e:	87cff0ef          	jal	ra,80000eba <log_error>
    80001e42:	05200793          	li	a5,82
    80001e46:	a0ed                	j	80001f30 <config_i2c+0x1e0>
    80001e48:	00003517          	auipc	a0,0x3
    80001e4c:	e7850513          	addi	a0,a0,-392 # 80004cc0 <__rodata_start+0x438>
    80001e50:	ffdfe0ef          	jal	ra,80000e4c <log_debug>
    80001e54:	00003517          	auipc	a0,0x3
    80001e58:	e8c50513          	addi	a0,a0,-372 # 80004ce0 <__rodata_start+0x458>
    80001e5c:	ff1fe0ef          	jal	ra,80000e4c <log_debug>
    80001e60:	fd843783          	ld	a5,-40(s0)
    80001e64:	08000713          	li	a4,128
    80001e68:	c798                	sw	a4,8(a5)
    80001e6a:	00003517          	auipc	a0,0x3
    80001e6e:	e9e50513          	addi	a0,a0,-354 # 80004d08 <__rodata_start+0x480>
    80001e72:	fdbfe0ef          	jal	ra,80000e4c <log_debug>
    80001e76:	fd843783          	ld	a5,-40(s0)
    80001e7a:	479c                	lw	a5,8(a5)
    80001e7c:	fef407a3          	sb	a5,-17(s0)
    80001e80:	fef44783          	lbu	a5,-17(s0)
    80001e84:	2781                	sext.w	a5,a5
    80001e86:	07f7f793          	andi	a5,a5,127
    80001e8a:	2781                	sext.w	a5,a5
    80001e8c:	cb91                	beqz	a5,80001ea0 <config_i2c+0x150>
    80001e8e:	00003517          	auipc	a0,0x3
    80001e92:	e9a50513          	addi	a0,a0,-358 # 80004d28 <__rodata_start+0x4a0>
    80001e96:	824ff0ef          	jal	ra,80000eba <log_error>
    80001e9a:	05200793          	li	a5,82
    80001e9e:	a849                	j	80001f30 <config_i2c+0x1e0>
    80001ea0:	00003517          	auipc	a0,0x3
    80001ea4:	ea050513          	addi	a0,a0,-352 # 80004d40 <__rodata_start+0x4b8>
    80001ea8:	fa5fe0ef          	jal	ra,80000e4c <log_debug>
    80001eac:	38400513          	li	a0,900
    80001eb0:	937fe0ef          	jal	ra,800007e6 <waitfor>
    80001eb4:	00003517          	auipc	a0,0x3
    80001eb8:	eac50513          	addi	a0,a0,-340 # 80004d60 <__rodata_start+0x4d8>
    80001ebc:	f91fe0ef          	jal	ra,80000e4c <log_debug>
    80001ec0:	fd843783          	ld	a5,-40(s0)
    80001ec4:	4798                	lw	a4,8(a5)
    80001ec6:	fd843783          	ld	a5,-40(s0)
    80001eca:	4f9c                	lw	a5,24(a5)
    80001ecc:	863e                	mv	a2,a5
    80001ece:	85ba                	mv	a1,a4
    80001ed0:	00003517          	auipc	a0,0x3
    80001ed4:	ea850513          	addi	a0,a0,-344 # 80004d78 <__rodata_start+0x4f0>
    80001ed8:	f2bfe0ef          	jal	ra,80000e02 <log_info>
    80001edc:	fd843783          	ld	a5,-40(s0)
    80001ee0:	0c100713          	li	a4,193
    80001ee4:	c798                	sw	a4,8(a5)
    80001ee6:	38400513          	li	a0,900
    80001eea:	8fdfe0ef          	jal	ra,800007e6 <waitfor>
    80001eee:	fd843783          	ld	a5,-40(s0)
    80001ef2:	4f9c                	lw	a5,24(a5)
    80001ef4:	fef407a3          	sb	a5,-17(s0)
    80001ef8:	fef44783          	lbu	a5,-17(s0)
    80001efc:	0ff7f713          	andi	a4,a5,255
    80001f00:	08100793          	li	a5,129
    80001f04:	00f70f63          	beq	a4,a5,80001f22 <config_i2c+0x1d2>
    80001f08:	fef44783          	lbu	a5,-17(s0)
    80001f0c:	2781                	sext.w	a5,a5
    80001f0e:	85be                	mv	a1,a5
    80001f10:	00003517          	auipc	a0,0x3
    80001f14:	e8850513          	addi	a0,a0,-376 # 80004d98 <__rodata_start+0x510>
    80001f18:	fa3fe0ef          	jal	ra,80000eba <log_error>
    80001f1c:	05200793          	li	a5,82
    80001f20:	a801                	j	80001f30 <config_i2c+0x1e0>
    80001f22:	00003517          	auipc	a0,0x3
    80001f26:	ea650513          	addi	a0,a0,-346 # 80004dc8 <__rodata_start+0x540>
    80001f2a:	ed9fe0ef          	jal	ra,80000e02 <log_info>
    80001f2e:	4781                	li	a5,0
    80001f30:	853e                	mv	a0,a5
    80001f32:	70a2                	ld	ra,40(sp)
    80001f34:	7402                	ld	s0,32(sp)
    80001f36:	6145                	addi	sp,sp,48
    80001f38:	8082                	ret

0000000080001f3a <wait_till_I2c_bus_free>:
    80001f3a:	7179                	addi	sp,sp,-48
    80001f3c:	f406                	sd	ra,40(sp)
    80001f3e:	f022                	sd	s0,32(sp)
    80001f40:	1800                	addi	s0,sp,48
    80001f42:	fca43c23          	sd	a0,-40(s0)
    80001f46:	00003517          	auipc	a0,0x3
    80001f4a:	ea250513          	addi	a0,a0,-350 # 80004de8 <__rodata_start+0x560>
    80001f4e:	efffe0ef          	jal	ra,80000e4c <log_debug>
    80001f52:	03c00793          	li	a5,60
    80001f56:	fef42623          	sw	a5,-20(s0)
    80001f5a:	fd843783          	ld	a5,-40(s0)
    80001f5e:	4f9c                	lw	a5,24(a5)
    80001f60:	fef42423          	sw	a5,-24(s0)
    80001f64:	a819                	j	80001f7a <wait_till_I2c_bus_free+0x40>
    80001f66:	6795                	lui	a5,0x5
    80001f68:	e2078513          	addi	a0,a5,-480 # 4e20 <_tbss_end+0x4e20>
    80001f6c:	87bfe0ef          	jal	ra,800007e6 <waitfor>
    80001f70:	fd843783          	ld	a5,-40(s0)
    80001f74:	4f9c                	lw	a5,24(a5)
    80001f76:	fef42423          	sw	a5,-24(s0)
    80001f7a:	fe842783          	lw	a5,-24(s0)
    80001f7e:	8b85                	andi	a5,a5,1
    80001f80:	2781                	sext.w	a5,a5
    80001f82:	eb91                	bnez	a5,80001f96 <wait_till_I2c_bus_free+0x5c>
    80001f84:	fec42783          	lw	a5,-20(s0)
    80001f88:	37fd                	addiw	a5,a5,-1
    80001f8a:	fef42623          	sw	a5,-20(s0)
    80001f8e:	fec42783          	lw	a5,-20(s0)
    80001f92:	2781                	sext.w	a5,a5
    80001f94:	fbe9                	bnez	a5,80001f66 <wait_till_I2c_bus_free+0x2c>
    80001f96:	fec42783          	lw	a5,-20(s0)
    80001f9a:	2781                	sext.w	a5,a5
    80001f9c:	eb91                	bnez	a5,80001fb0 <wait_till_I2c_bus_free+0x76>
    80001f9e:	00003517          	auipc	a0,0x3
    80001fa2:	e7250513          	addi	a0,a0,-398 # 80004e10 <__rodata_start+0x588>
    80001fa6:	f15fe0ef          	jal	ra,80000eba <log_error>
    80001faa:	fb000793          	li	a5,-80
    80001fae:	a011                	j	80001fb2 <wait_till_I2c_bus_free+0x78>
    80001fb0:	4781                	li	a5,0
    80001fb2:	853e                	mv	a0,a5
    80001fb4:	70a2                	ld	ra,40(sp)
    80001fb6:	7402                	ld	s0,32(sp)
    80001fb8:	6145                	addi	sp,sp,48
    80001fba:	8082                	ret

0000000080001fbc <wait_till_txrx_operation_Completes>:
    80001fbc:	7179                	addi	sp,sp,-48
    80001fbe:	f406                	sd	ra,40(sp)
    80001fc0:	f022                	sd	s0,32(sp)
    80001fc2:	1800                	addi	s0,sp,48
    80001fc4:	fca43c23          	sd	a0,-40(s0)
    80001fc8:	fcb43823          	sd	a1,-48(s0)
    80001fcc:	03c00793          	li	a5,60
    80001fd0:	fef42623          	sw	a5,-20(s0)
    80001fd4:	fd843783          	ld	a5,-40(s0)
    80001fd8:	4f9c                	lw	a5,24(a5)
    80001fda:	0007871b          	sext.w	a4,a5
    80001fde:	fd043783          	ld	a5,-48(s0)
    80001fe2:	c398                	sw	a4,0(a5)
    80001fe4:	a831                	j	80002000 <wait_till_txrx_operation_Completes+0x44>
    80001fe6:	6789                	lui	a5,0x2
    80001fe8:	71078513          	addi	a0,a5,1808 # 2710 <_tbss_end+0x2710>
    80001fec:	ffafe0ef          	jal	ra,800007e6 <waitfor>
    80001ff0:	fd843783          	ld	a5,-40(s0)
    80001ff4:	4f9c                	lw	a5,24(a5)
    80001ff6:	0007871b          	sext.w	a4,a5
    80001ffa:	fd043783          	ld	a5,-48(s0)
    80001ffe:	c398                	sw	a4,0(a5)
    80002000:	fd043783          	ld	a5,-48(s0)
    80002004:	439c                	lw	a5,0(a5)
    80002006:	0807f793          	andi	a5,a5,128
    8000200a:	2781                	sext.w	a5,a5
    8000200c:	cb91                	beqz	a5,80002020 <wait_till_txrx_operation_Completes+0x64>
    8000200e:	fec42783          	lw	a5,-20(s0)
    80002012:	37fd                	addiw	a5,a5,-1
    80002014:	fef42623          	sw	a5,-20(s0)
    80002018:	fec42783          	lw	a5,-20(s0)
    8000201c:	2781                	sext.w	a5,a5
    8000201e:	f7e1                	bnez	a5,80001fe6 <wait_till_txrx_operation_Completes+0x2a>
    80002020:	fec42783          	lw	a5,-20(s0)
    80002024:	2781                	sext.w	a5,a5
    80002026:	eb91                	bnez	a5,8000203a <wait_till_txrx_operation_Completes+0x7e>
    80002028:	00003517          	auipc	a0,0x3
    8000202c:	e1050513          	addi	a0,a0,-496 # 80004e38 <__rodata_start+0x5b0>
    80002030:	dd3fe0ef          	jal	ra,80000e02 <log_info>
    80002034:	fb000793          	li	a5,-80
    80002038:	a829                	j	80002052 <wait_till_txrx_operation_Completes+0x96>
    8000203a:	6789                	lui	a5,0x2
    8000203c:	71078513          	addi	a0,a5,1808 # 2710 <_tbss_end+0x2710>
    80002040:	fa6fe0ef          	jal	ra,800007e6 <waitfor>
    80002044:	00003517          	auipc	a0,0x3
    80002048:	e1450513          	addi	a0,a0,-492 # 80004e58 <__rodata_start+0x5d0>
    8000204c:	e01fe0ef          	jal	ra,80000e4c <log_debug>
    80002050:	4781                	li	a5,0
    80002052:	853e                	mv	a0,a5
    80002054:	70a2                	ld	ra,40(sp)
    80002056:	7402                	ld	s0,32(sp)
    80002058:	6145                	addi	sp,sp,48
    8000205a:	8082                	ret

000000008000205c <sendbytes>:
    8000205c:	7139                	addi	sp,sp,-64
    8000205e:	fc06                	sd	ra,56(sp)
    80002060:	f822                	sd	s0,48(sp)
    80002062:	0080                	addi	s0,sp,64
    80002064:	fca43c23          	sd	a0,-40(s0)
    80002068:	fcb43823          	sd	a1,-48(s0)
    8000206c:	87b2                	mv	a5,a2
    8000206e:	fcf42623          	sw	a5,-52(s0)
    80002072:	87b6                	mv	a5,a3
    80002074:	fcf42423          	sw	a5,-56(s0)
    80002078:	87ba                	mv	a5,a4
    8000207a:	fcf42223          	sw	a5,-60(s0)
    8000207e:	00003517          	auipc	a0,0x3
    80002082:	e0250513          	addi	a0,a0,-510 # 80004e80 <__rodata_start+0x5f8>
    80002086:	b56ff0ef          	jal	ra,800013dc <printf>
    8000208a:	fe042623          	sw	zero,-20(s0)
    8000208e:	a049                	j	80002110 <sendbytes+0xb4>
    80002090:	fec42783          	lw	a5,-20(s0)
    80002094:	fd043703          	ld	a4,-48(s0)
    80002098:	97ba                	add	a5,a5,a4
    8000209a:	0007c783          	lbu	a5,0(a5)
    8000209e:	0007871b          	sext.w	a4,a5
    800020a2:	fd843783          	ld	a5,-40(s0)
    800020a6:	cb98                	sw	a4,16(a5)
    800020a8:	fe440793          	addi	a5,s0,-28
    800020ac:	85be                	mv	a1,a5
    800020ae:	fd843503          	ld	a0,-40(s0)
    800020b2:	f0bff0ef          	jal	ra,80001fbc <wait_till_txrx_operation_Completes>
    800020b6:	87aa                	mv	a5,a0
    800020b8:	fef42423          	sw	a5,-24(s0)
    800020bc:	fe842783          	lw	a5,-24(s0)
    800020c0:	2781                	sext.w	a5,a5
    800020c2:	cf99                	beqz	a5,800020e0 <sendbytes+0x84>
    800020c4:	00003517          	auipc	a0,0x3
    800020c8:	e1450513          	addi	a0,a0,-492 # 80004ed8 <__rodata_start+0x650>
    800020cc:	b10ff0ef          	jal	ra,800013dc <printf>
    800020d0:	fd843783          	ld	a5,-40(s0)
    800020d4:	0c300713          	li	a4,195
    800020d8:	c798                	sw	a4,8(a5)
    800020da:	faf00793          	li	a5,-81
    800020de:	a841                	j	8000216e <sendbytes+0x112>
    800020e0:	fe442783          	lw	a5,-28(s0)
    800020e4:	8ba1                	andi	a5,a5,8
    800020e6:	2781                	sext.w	a5,a5
    800020e8:	cf99                	beqz	a5,80002106 <sendbytes+0xaa>
    800020ea:	fd843783          	ld	a5,-40(s0)
    800020ee:	0c300713          	li	a4,195
    800020f2:	c798                	sw	a4,8(a5)
    800020f4:	00003517          	auipc	a0,0x3
    800020f8:	e2c50513          	addi	a0,a0,-468 # 80004f20 <__rodata_start+0x698>
    800020fc:	ae0ff0ef          	jal	ra,800013dc <printf>
    80002100:	faf00793          	li	a5,-81
    80002104:	a0ad                	j	8000216e <sendbytes+0x112>
    80002106:	fec42783          	lw	a5,-20(s0)
    8000210a:	2785                	addiw	a5,a5,1
    8000210c:	fef42623          	sw	a5,-20(s0)
    80002110:	fec42703          	lw	a4,-20(s0)
    80002114:	fcc42783          	lw	a5,-52(s0)
    80002118:	2701                	sext.w	a4,a4
    8000211a:	2781                	sext.w	a5,a5
    8000211c:	f6f74ae3          	blt	a4,a5,80002090 <sendbytes+0x34>
    80002120:	fc842783          	lw	a5,-56(s0)
    80002124:	2781                	sext.w	a5,a5
    80002126:	cf89                	beqz	a5,80002140 <sendbytes+0xe4>
    80002128:	00003517          	auipc	a0,0x3
    8000212c:	e1850513          	addi	a0,a0,-488 # 80004f40 <__rodata_start+0x6b8>
    80002130:	aacff0ef          	jal	ra,800013dc <printf>
    80002134:	fd843783          	ld	a5,-40(s0)
    80002138:	0c300713          	li	a4,195
    8000213c:	c798                	sw	a4,8(a5)
    8000213e:	a035                	j	8000216a <sendbytes+0x10e>
    80002140:	00003517          	auipc	a0,0x3
    80002144:	e2050513          	addi	a0,a0,-480 # 80004f60 <__rodata_start+0x6d8>
    80002148:	a94ff0ef          	jal	ra,800013dc <printf>
    8000214c:	fc442783          	lw	a5,-60(s0)
    80002150:	2781                	sext.w	a5,a5
    80002152:	e799                	bnez	a5,80002160 <sendbytes+0x104>
    80002154:	fd843783          	ld	a5,-40(s0)
    80002158:	04500713          	li	a4,69
    8000215c:	c798                	sw	a4,8(a5)
    8000215e:	a031                	j	8000216a <sendbytes+0x10e>
    80002160:	fd843783          	ld	a5,-40(s0)
    80002164:	04d00713          	li	a4,77
    80002168:	c798                	sw	a4,8(a5)
    8000216a:	fec42783          	lw	a5,-20(s0)
    8000216e:	853e                	mv	a0,a5
    80002170:	70e2                	ld	ra,56(sp)
    80002172:	7442                	ld	s0,48(sp)
    80002174:	6121                	addi	sp,sp,64
    80002176:	8082                	ret

0000000080002178 <readbytes>:
    80002178:	7139                	addi	sp,sp,-64
    8000217a:	fc06                	sd	ra,56(sp)
    8000217c:	f822                	sd	s0,48(sp)
    8000217e:	0080                	addi	s0,sp,64
    80002180:	fca43c23          	sd	a0,-40(s0)
    80002184:	fcb43823          	sd	a1,-48(s0)
    80002188:	87b2                	mv	a5,a2
    8000218a:	8736                	mv	a4,a3
    8000218c:	fcf42623          	sw	a5,-52(s0)
    80002190:	87ba                	mv	a5,a4
    80002192:	fcf42423          	sw	a5,-56(s0)
    80002196:	fe042623          	sw	zero,-20(s0)
    8000219a:	aa19                	j	800022b0 <readbytes+0x138>
    8000219c:	fe440793          	addi	a5,s0,-28
    800021a0:	85be                	mv	a1,a5
    800021a2:	fd843503          	ld	a0,-40(s0)
    800021a6:	e17ff0ef          	jal	ra,80001fbc <wait_till_txrx_operation_Completes>
    800021aa:	87aa                	mv	a5,a0
    800021ac:	fef42423          	sw	a5,-24(s0)
    800021b0:	fe842783          	lw	a5,-24(s0)
    800021b4:	2781                	sext.w	a5,a5
    800021b6:	cb81                	beqz	a5,800021c6 <readbytes+0x4e>
    800021b8:	fd843783          	ld	a5,-40(s0)
    800021bc:	0c300713          	li	a4,195
    800021c0:	c798                	sw	a4,8(a5)
    800021c2:	57fd                	li	a5,-1
    800021c4:	a211                	j	800022c8 <readbytes+0x150>
    800021c6:	fe442783          	lw	a5,-28(s0)
    800021ca:	8ba1                	andi	a5,a5,8
    800021cc:	2781                	sext.w	a5,a5
    800021ce:	c795                	beqz	a5,800021fa <readbytes+0x82>
    800021d0:	fec42703          	lw	a4,-20(s0)
    800021d4:	fcc42783          	lw	a5,-52(s0)
    800021d8:	2701                	sext.w	a4,a4
    800021da:	2781                	sext.w	a5,a5
    800021dc:	00f70f63          	beq	a4,a5,800021fa <readbytes+0x82>
    800021e0:	fd843783          	ld	a5,-40(s0)
    800021e4:	0c300713          	li	a4,195
    800021e8:	c798                	sw	a4,8(a5)
    800021ea:	00003517          	auipc	a0,0x3
    800021ee:	db650513          	addi	a0,a0,-586 # 80004fa0 <__rodata_start+0x718>
    800021f2:	9eaff0ef          	jal	ra,800013dc <printf>
    800021f6:	57fd                	li	a5,-1
    800021f8:	a8c1                	j	800022c8 <readbytes+0x150>
    800021fa:	fec42783          	lw	a5,-20(s0)
    800021fe:	2781                	sext.w	a5,a5
    80002200:	c3a1                	beqz	a5,80002240 <readbytes+0xc8>
    80002202:	fd843783          	ld	a5,-40(s0)
    80002206:	4b94                	lw	a3,16(a5)
    80002208:	fec42783          	lw	a5,-20(s0)
    8000220c:	17fd                	addi	a5,a5,-1
    8000220e:	fd043703          	ld	a4,-48(s0)
    80002212:	97ba                	add	a5,a5,a4
    80002214:	8736                	mv	a4,a3
    80002216:	0ff77713          	andi	a4,a4,255
    8000221a:	00e78023          	sb	a4,0(a5)
    8000221e:	fec42783          	lw	a5,-20(s0)
    80002222:	17fd                	addi	a5,a5,-1
    80002224:	fd043703          	ld	a4,-48(s0)
    80002228:	97ba                	add	a5,a5,a4
    8000222a:	0007c783          	lbu	a5,0(a5)
    8000222e:	2781                	sext.w	a5,a5
    80002230:	85be                	mv	a1,a5
    80002232:	00003517          	auipc	a0,0x3
    80002236:	d7e50513          	addi	a0,a0,-642 # 80004fb0 <__rodata_start+0x728>
    8000223a:	9a2ff0ef          	jal	ra,800013dc <printf>
    8000223e:	a829                	j	80002258 <readbytes+0xe0>
    80002240:	fd843783          	ld	a5,-40(s0)
    80002244:	4b9c                	lw	a5,16(a5)
    80002246:	0017b793          	seqz	a5,a5
    8000224a:	0ff7f793          	andi	a5,a5,255
    8000224e:	0007871b          	sext.w	a4,a5
    80002252:	fd843783          	ld	a5,-40(s0)
    80002256:	cb98                	sw	a4,16(a5)
    80002258:	fcc42783          	lw	a5,-52(s0)
    8000225c:	37fd                	addiw	a5,a5,-1
    8000225e:	0007871b          	sext.w	a4,a5
    80002262:	fec42783          	lw	a5,-20(s0)
    80002266:	2781                	sext.w	a5,a5
    80002268:	00e79863          	bne	a5,a4,80002278 <readbytes+0x100>
    8000226c:	fd843783          	ld	a5,-40(s0)
    80002270:	04000713          	li	a4,64
    80002274:	c798                	sw	a4,8(a5)
    80002276:	a805                	j	800022a6 <readbytes+0x12e>
    80002278:	fec42703          	lw	a4,-20(s0)
    8000227c:	fcc42783          	lw	a5,-52(s0)
    80002280:	2701                	sext.w	a4,a4
    80002282:	2781                	sext.w	a5,a5
    80002284:	02f71163          	bne	a4,a5,800022a6 <readbytes+0x12e>
    80002288:	fc842783          	lw	a5,-56(s0)
    8000228c:	2781                	sext.w	a5,a5
    8000228e:	c799                	beqz	a5,8000229c <readbytes+0x124>
    80002290:	fd843783          	ld	a5,-40(s0)
    80002294:	0c300713          	li	a4,195
    80002298:	c798                	sw	a4,8(a5)
    8000229a:	a031                	j	800022a6 <readbytes+0x12e>
    8000229c:	fd843783          	ld	a5,-40(s0)
    800022a0:	04d00713          	li	a4,77
    800022a4:	c798                	sw	a4,8(a5)
    800022a6:	fec42783          	lw	a5,-20(s0)
    800022aa:	2785                	addiw	a5,a5,1
    800022ac:	fef42623          	sw	a5,-20(s0)
    800022b0:	fec42703          	lw	a4,-20(s0)
    800022b4:	fcc42783          	lw	a5,-52(s0)
    800022b8:	2701                	sext.w	a4,a4
    800022ba:	2781                	sext.w	a5,a5
    800022bc:	eee7d0e3          	bge	a5,a4,8000219c <readbytes+0x24>
    800022c0:	fec42783          	lw	a5,-20(s0)
    800022c4:	37fd                	addiw	a5,a5,-1
    800022c6:	2781                	sext.w	a5,a5
    800022c8:	853e                	mv	a0,a5
    800022ca:	70e2                	ld	ra,56(sp)
    800022cc:	7442                	ld	s0,48(sp)
    800022ce:	6121                	addi	sp,sp,64
    800022d0:	8082                	ret

00000000800022d2 <i2c_send_slave_address>:
    800022d2:	7139                	addi	sp,sp,-64
    800022d4:	fc06                	sd	ra,56(sp)
    800022d6:	f822                	sd	s0,48(sp)
    800022d8:	0080                	addi	s0,sp,64
    800022da:	fca43c23          	sd	a0,-40(s0)
    800022de:	87ae                	mv	a5,a1
    800022e0:	8732                	mv	a4,a2
    800022e2:	fcd43423          	sd	a3,-56(s0)
    800022e6:	fcf40ba3          	sb	a5,-41(s0)
    800022ea:	87ba                	mv	a5,a4
    800022ec:	fcf40b23          	sb	a5,-42(s0)
    800022f0:	fe0407a3          	sb	zero,-17(s0)
    800022f4:	fe042223          	sw	zero,-28(s0)
    800022f8:	fd644783          	lbu	a5,-42(s0)
    800022fc:	0ff7f793          	andi	a5,a5,255
    80002300:	c799                	beqz	a5,8000230e <i2c_send_slave_address+0x3c>
    80002302:	fd744783          	lbu	a5,-41(s0)
    80002306:	0017e793          	ori	a5,a5,1
    8000230a:	fcf40ba3          	sb	a5,-41(s0)
    8000230e:	fd744783          	lbu	a5,-41(s0)
    80002312:	0007871b          	sext.w	a4,a5
    80002316:	fd843783          	ld	a5,-40(s0)
    8000231a:	cb98                	sw	a4,16(a5)
    8000231c:	fd744783          	lbu	a5,-41(s0)
    80002320:	2781                	sext.w	a5,a5
    80002322:	85be                	mv	a1,a5
    80002324:	00003517          	auipc	a0,0x3
    80002328:	ca450513          	addi	a0,a0,-860 # 80004fc8 <__rodata_start+0x740>
    8000232c:	b21fe0ef          	jal	ra,80000e4c <log_debug>
    80002330:	fd843783          	ld	a5,-40(s0)
    80002334:	4b9c                	lw	a5,16(a5)
    80002336:	fef407a3          	sb	a5,-17(s0)
    8000233a:	fd744703          	lbu	a4,-41(s0)
    8000233e:	fef44783          	lbu	a5,-17(s0)
    80002342:	0ff77713          	andi	a4,a4,255
    80002346:	0ff7f793          	andi	a5,a5,255
    8000234a:	04f70063          	beq	a4,a5,8000238a <i2c_send_slave_address+0xb8>
    8000234e:	fd744783          	lbu	a5,-41(s0)
    80002352:	2781                	sext.w	a5,a5
    80002354:	fef44703          	lbu	a4,-17(s0)
    80002358:	2701                	sext.w	a4,a4
    8000235a:	863a                	mv	a2,a4
    8000235c:	85be                	mv	a1,a5
    8000235e:	00003517          	auipc	a0,0x3
    80002362:	c9a50513          	addi	a0,a0,-870 # 80004ff8 <__rodata_start+0x770>
    80002366:	b55fe0ef          	jal	ra,80000eba <log_error>
    8000236a:	00003517          	auipc	a0,0x3
    8000236e:	ce650513          	addi	a0,a0,-794 # 80005050 <__rodata_start+0x7c8>
    80002372:	b49fe0ef          	jal	ra,80000eba <log_error>
    80002376:	57fd                	li	a5,-1
    80002378:	a079                	j	80002406 <i2c_send_slave_address+0x134>
    8000237a:	00003517          	auipc	a0,0x3
    8000237e:	d0e50513          	addi	a0,a0,-754 # 80005088 <__rodata_start+0x800>
    80002382:	b39fe0ef          	jal	ra,80000eba <log_error>
    80002386:	57f9                	li	a5,-2
    80002388:	a8bd                	j	80002406 <i2c_send_slave_address+0x134>
    8000238a:	0001                	nop
    8000238c:	fd843503          	ld	a0,-40(s0)
    80002390:	babff0ef          	jal	ra,80001f3a <wait_till_I2c_bus_free>
    80002394:	87aa                	mv	a5,a0
    80002396:	f3f5                	bnez	a5,8000237a <i2c_send_slave_address+0xa8>
    80002398:	fd843783          	ld	a5,-40(s0)
    8000239c:	0c500713          	li	a4,197
    800023a0:	c798                	sw	a4,8(a5)
    800023a2:	38400513          	li	a0,900
    800023a6:	c40fe0ef          	jal	ra,800007e6 <waitfor>
    800023aa:	fe440793          	addi	a5,s0,-28
    800023ae:	85be                	mv	a1,a5
    800023b0:	fd843503          	ld	a0,-40(s0)
    800023b4:	c09ff0ef          	jal	ra,80001fbc <wait_till_txrx_operation_Completes>
    800023b8:	87aa                	mv	a5,a0
    800023ba:	fef42423          	sw	a5,-24(s0)
    800023be:	fe842783          	lw	a5,-24(s0)
    800023c2:	2781                	sext.w	a5,a5
    800023c4:	cf91                	beqz	a5,800023e0 <i2c_send_slave_address+0x10e>
    800023c6:	00003517          	auipc	a0,0x3
    800023ca:	b1250513          	addi	a0,a0,-1262 # 80004ed8 <__rodata_start+0x650>
    800023ce:	80eff0ef          	jal	ra,800013dc <printf>
    800023d2:	fd843783          	ld	a5,-40(s0)
    800023d6:	0c300713          	li	a4,195
    800023da:	c798                	sw	a4,8(a5)
    800023dc:	57f5                	li	a5,-3
    800023de:	a025                	j	80002406 <i2c_send_slave_address+0x134>
    800023e0:	fe442783          	lw	a5,-28(s0)
    800023e4:	8ba1                	andi	a5,a5,8
    800023e6:	2781                	sext.w	a5,a5
    800023e8:	cf91                	beqz	a5,80002404 <i2c_send_slave_address+0x132>
    800023ea:	fd843783          	ld	a5,-40(s0)
    800023ee:	0c300713          	li	a4,195
    800023f2:	c798                	sw	a4,8(a5)
    800023f4:	00003517          	auipc	a0,0x3
    800023f8:	b2c50513          	addi	a0,a0,-1236 # 80004f20 <__rodata_start+0x698>
    800023fc:	fe1fe0ef          	jal	ra,800013dc <printf>
    80002400:	57f1                	li	a5,-4
    80002402:	a011                	j	80002406 <i2c_send_slave_address+0x134>
    80002404:	4781                	li	a5,0
    80002406:	853e                	mv	a0,a5
    80002408:	70e2                	ld	ra,56(sp)
    8000240a:	7442                	ld	s0,48(sp)
    8000240c:	6121                	addi	sp,sp,64
    8000240e:	8082                	ret

0000000080002410 <i2c_write_data>:
    80002410:	7179                	addi	sp,sp,-48
    80002412:	f406                	sd	ra,40(sp)
    80002414:	f022                	sd	s0,32(sp)
    80002416:	1800                	addi	s0,sp,48
    80002418:	fca43c23          	sd	a0,-40(s0)
    8000241c:	87ae                	mv	a5,a1
    8000241e:	8732                	mv	a4,a2
    80002420:	fcf40ba3          	sb	a5,-41(s0)
    80002424:	87ba                	mv	a5,a4
    80002426:	fcf40b23          	sb	a5,-42(s0)
    8000242a:	fe042423          	sw	zero,-24(s0)
    8000242e:	fd744783          	lbu	a5,-41(s0)
    80002432:	0007871b          	sext.w	a4,a5
    80002436:	fd843783          	ld	a5,-40(s0)
    8000243a:	cb98                	sw	a4,16(a5)
    8000243c:	fe840793          	addi	a5,s0,-24
    80002440:	85be                	mv	a1,a5
    80002442:	fd843503          	ld	a0,-40(s0)
    80002446:	b77ff0ef          	jal	ra,80001fbc <wait_till_txrx_operation_Completes>
    8000244a:	87aa                	mv	a5,a0
    8000244c:	fef42623          	sw	a5,-20(s0)
    80002450:	fec42783          	lw	a5,-20(s0)
    80002454:	2781                	sext.w	a5,a5
    80002456:	cf99                	beqz	a5,80002474 <i2c_write_data+0x64>
    80002458:	00003517          	auipc	a0,0x3
    8000245c:	a8050513          	addi	a0,a0,-1408 # 80004ed8 <__rodata_start+0x650>
    80002460:	f7dfe0ef          	jal	ra,800013dc <printf>
    80002464:	fd843783          	ld	a5,-40(s0)
    80002468:	0c300713          	li	a4,195
    8000246c:	c798                	sw	a4,8(a5)
    8000246e:	faf00793          	li	a5,-81
    80002472:	a025                	j	8000249a <i2c_write_data+0x8a>
    80002474:	fe842783          	lw	a5,-24(s0)
    80002478:	8ba1                	andi	a5,a5,8
    8000247a:	2781                	sext.w	a5,a5
    8000247c:	cf91                	beqz	a5,80002498 <i2c_write_data+0x88>
    8000247e:	fd843783          	ld	a5,-40(s0)
    80002482:	0c300713          	li	a4,195
    80002486:	c798                	sw	a4,8(a5)
    80002488:	00003517          	auipc	a0,0x3
    8000248c:	a9850513          	addi	a0,a0,-1384 # 80004f20 <__rodata_start+0x698>
    80002490:	f4dfe0ef          	jal	ra,800013dc <printf>
    80002494:	57f1                	li	a5,-4
    80002496:	a011                	j	8000249a <i2c_write_data+0x8a>
    80002498:	4781                	li	a5,0
    8000249a:	853e                	mv	a0,a5
    8000249c:	70a2                	ld	ra,40(sp)
    8000249e:	7402                	ld	s0,32(sp)
    800024a0:	6145                	addi	sp,sp,48
    800024a2:	8082                	ret

00000000800024a4 <i2c_read_data>:
    800024a4:	7139                	addi	sp,sp,-64
    800024a6:	fc06                	sd	ra,56(sp)
    800024a8:	f822                	sd	s0,48(sp)
    800024aa:	0080                	addi	s0,sp,64
    800024ac:	fca43c23          	sd	a0,-40(s0)
    800024b0:	fcb43823          	sd	a1,-48(s0)
    800024b4:	87b2                	mv	a5,a2
    800024b6:	fcf407a3          	sb	a5,-49(s0)
    800024ba:	fe042623          	sw	zero,-20(s0)
    800024be:	fd843783          	ld	a5,-40(s0)
    800024c2:	4b9c                	lw	a5,16(a5)
    800024c4:	0ff7f713          	andi	a4,a5,255
    800024c8:	fd043783          	ld	a5,-48(s0)
    800024cc:	00e78023          	sb	a4,0(a5)
    800024d0:	a829                	j	800024ea <i2c_read_data+0x46>
    800024d2:	00003517          	auipc	a0,0x3
    800024d6:	bd650513          	addi	a0,a0,-1066 # 800050a8 <__rodata_start+0x820>
    800024da:	f03fe0ef          	jal	ra,800013dc <printf>
    800024de:	fcf44783          	lbu	a5,-49(s0)
    800024e2:	2781                	sext.w	a5,a5
    800024e4:	853e                	mv	a0,a5
    800024e6:	b00fe0ef          	jal	ra,800007e6 <waitfor>
    800024ea:	fec40793          	addi	a5,s0,-20
    800024ee:	85be                	mv	a1,a5
    800024f0:	fd843503          	ld	a0,-40(s0)
    800024f4:	ac9ff0ef          	jal	ra,80001fbc <wait_till_txrx_operation_Completes>
    800024f8:	87aa                	mv	a5,a0
    800024fa:	ffe1                	bnez	a5,800024d2 <i2c_read_data+0x2e>
    800024fc:	4781                	li	a5,0
    800024fe:	853e                	mv	a0,a5
    80002500:	70e2                	ld	ra,56(sp)
    80002502:	7442                	ld	s0,48(sp)
    80002504:	6121                	addi	sp,sp,64
    80002506:	8082                	ret

0000000080002508 <i2c_read_data_nack>:
    80002508:	7179                	addi	sp,sp,-48
    8000250a:	f406                	sd	ra,40(sp)
    8000250c:	f022                	sd	s0,32(sp)
    8000250e:	1800                	addi	s0,sp,48
    80002510:	fea43423          	sd	a0,-24(s0)
    80002514:	feb43023          	sd	a1,-32(s0)
    80002518:	87b2                	mv	a5,a2
    8000251a:	fcf40fa3          	sb	a5,-33(s0)
    8000251e:	fe843783          	ld	a5,-24(s0)
    80002522:	4b9c                	lw	a5,16(a5)
    80002524:	0ff7f713          	andi	a4,a5,255
    80002528:	fe043783          	ld	a5,-32(s0)
    8000252c:	00e78023          	sb	a4,0(a5)
    80002530:	fe043783          	ld	a5,-32(s0)
    80002534:	0007c783          	lbu	a5,0(a5)
    80002538:	2781                	sext.w	a5,a5
    8000253a:	85be                	mv	a1,a5
    8000253c:	00003517          	auipc	a0,0x3
    80002540:	b8450513          	addi	a0,a0,-1148 # 800050c0 <__rodata_start+0x838>
    80002544:	e99fe0ef          	jal	ra,800013dc <printf>
    80002548:	4781                	li	a5,0
    8000254a:	853e                	mv	a0,a5
    8000254c:	70a2                	ld	ra,40(sp)
    8000254e:	7402                	ld	s0,32(sp)
    80002550:	6145                	addi	sp,sp,48
    80002552:	8082                	ret

0000000080002554 <i2c_send_interrupt_slave_address>:
    80002554:	7139                	addi	sp,sp,-64
    80002556:	fc06                	sd	ra,56(sp)
    80002558:	f822                	sd	s0,48(sp)
    8000255a:	0080                	addi	s0,sp,64
    8000255c:	fca43c23          	sd	a0,-40(s0)
    80002560:	87ae                	mv	a5,a1
    80002562:	8732                	mv	a4,a2
    80002564:	fcd43423          	sd	a3,-56(s0)
    80002568:	fcf40ba3          	sb	a5,-41(s0)
    8000256c:	87ba                	mv	a5,a4
    8000256e:	fcf40b23          	sb	a5,-42(s0)
    80002572:	fe0407a3          	sb	zero,-17(s0)
    80002576:	fe042223          	sw	zero,-28(s0)
    8000257a:	fd644783          	lbu	a5,-42(s0)
    8000257e:	0ff7f793          	andi	a5,a5,255
    80002582:	c799                	beqz	a5,80002590 <i2c_send_interrupt_slave_address+0x3c>
    80002584:	fd744783          	lbu	a5,-41(s0)
    80002588:	0017e793          	ori	a5,a5,1
    8000258c:	fcf40ba3          	sb	a5,-41(s0)
    80002590:	fd744783          	lbu	a5,-41(s0)
    80002594:	2781                	sext.w	a5,a5
    80002596:	85be                	mv	a1,a5
    80002598:	00003517          	auipc	a0,0x3
    8000259c:	b4050513          	addi	a0,a0,-1216 # 800050d8 <__rodata_start+0x850>
    800025a0:	8adfe0ef          	jal	ra,80000e4c <log_debug>
    800025a4:	fd744783          	lbu	a5,-41(s0)
    800025a8:	0007871b          	sext.w	a4,a5
    800025ac:	fd843783          	ld	a5,-40(s0)
    800025b0:	cb98                	sw	a4,16(a5)
    800025b2:	00003517          	auipc	a0,0x3
    800025b6:	b4650513          	addi	a0,a0,-1210 # 800050f8 <__rodata_start+0x870>
    800025ba:	893fe0ef          	jal	ra,80000e4c <log_debug>
    800025be:	fd843783          	ld	a5,-40(s0)
    800025c2:	4b9c                	lw	a5,16(a5)
    800025c4:	fef407a3          	sb	a5,-17(s0)
    800025c8:	fef44783          	lbu	a5,-17(s0)
    800025cc:	2781                	sext.w	a5,a5
    800025ce:	85be                	mv	a1,a5
    800025d0:	00003517          	auipc	a0,0x3
    800025d4:	b5850513          	addi	a0,a0,-1192 # 80005128 <__rodata_start+0x8a0>
    800025d8:	875fe0ef          	jal	ra,80000e4c <log_debug>
    800025dc:	fd744703          	lbu	a4,-41(s0)
    800025e0:	fef44783          	lbu	a5,-17(s0)
    800025e4:	0ff77713          	andi	a4,a4,255
    800025e8:	0ff7f793          	andi	a5,a5,255
    800025ec:	04f70063          	beq	a4,a5,8000262c <i2c_send_interrupt_slave_address+0xd8>
    800025f0:	fd744783          	lbu	a5,-41(s0)
    800025f4:	2781                	sext.w	a5,a5
    800025f6:	fef44703          	lbu	a4,-17(s0)
    800025fa:	2701                	sext.w	a4,a4
    800025fc:	863a                	mv	a2,a4
    800025fe:	85be                	mv	a1,a5
    80002600:	00003517          	auipc	a0,0x3
    80002604:	9f850513          	addi	a0,a0,-1544 # 80004ff8 <__rodata_start+0x770>
    80002608:	8b3fe0ef          	jal	ra,80000eba <log_error>
    8000260c:	00003517          	auipc	a0,0x3
    80002610:	a4450513          	addi	a0,a0,-1468 # 80005050 <__rodata_start+0x7c8>
    80002614:	8a7fe0ef          	jal	ra,80000eba <log_error>
    80002618:	57fd                	li	a5,-1
    8000261a:	a849                	j	800026ac <i2c_send_interrupt_slave_address+0x158>
    8000261c:	00003517          	auipc	a0,0x3
    80002620:	a6c50513          	addi	a0,a0,-1428 # 80005088 <__rodata_start+0x800>
    80002624:	897fe0ef          	jal	ra,80000eba <log_error>
    80002628:	57f9                	li	a5,-2
    8000262a:	a049                	j	800026ac <i2c_send_interrupt_slave_address+0x158>
    8000262c:	0001                	nop
    8000262e:	fd843503          	ld	a0,-40(s0)
    80002632:	909ff0ef          	jal	ra,80001f3a <wait_till_I2c_bus_free>
    80002636:	87aa                	mv	a5,a0
    80002638:	f3f5                	bnez	a5,8000261c <i2c_send_interrupt_slave_address+0xc8>
    8000263a:	fd843783          	ld	a5,-40(s0)
    8000263e:	0c500713          	li	a4,197
    80002642:	c798                	sw	a4,8(a5)
    80002644:	fe440793          	addi	a5,s0,-28
    80002648:	85be                	mv	a1,a5
    8000264a:	fd843503          	ld	a0,-40(s0)
    8000264e:	96fff0ef          	jal	ra,80001fbc <wait_till_txrx_operation_Completes>
    80002652:	87aa                	mv	a5,a0
    80002654:	fef42423          	sw	a5,-24(s0)
    80002658:	fe842783          	lw	a5,-24(s0)
    8000265c:	2781                	sext.w	a5,a5
    8000265e:	cf91                	beqz	a5,8000267a <i2c_send_interrupt_slave_address+0x126>
    80002660:	00003517          	auipc	a0,0x3
    80002664:	87850513          	addi	a0,a0,-1928 # 80004ed8 <__rodata_start+0x650>
    80002668:	d75fe0ef          	jal	ra,800013dc <printf>
    8000266c:	fd843783          	ld	a5,-40(s0)
    80002670:	0c300713          	li	a4,195
    80002674:	c798                	sw	a4,8(a5)
    80002676:	57f5                	li	a5,-3
    80002678:	a815                	j	800026ac <i2c_send_interrupt_slave_address+0x158>
    8000267a:	fe442783          	lw	a5,-28(s0)
    8000267e:	8ba1                	andi	a5,a5,8
    80002680:	2781                	sext.w	a5,a5
    80002682:	cf91                	beqz	a5,8000269e <i2c_send_interrupt_slave_address+0x14a>
    80002684:	fd843783          	ld	a5,-40(s0)
    80002688:	0c300713          	li	a4,195
    8000268c:	c798                	sw	a4,8(a5)
    8000268e:	00003517          	auipc	a0,0x3
    80002692:	89250513          	addi	a0,a0,-1902 # 80004f20 <__rodata_start+0x698>
    80002696:	d47fe0ef          	jal	ra,800013dc <printf>
    8000269a:	57f1                	li	a5,-4
    8000269c:	a801                	j	800026ac <i2c_send_interrupt_slave_address+0x158>
    8000269e:	00003517          	auipc	a0,0x3
    800026a2:	aba50513          	addi	a0,a0,-1350 # 80005158 <__rodata_start+0x8d0>
    800026a6:	f5cfe0ef          	jal	ra,80000e02 <log_info>
    800026aa:	4781                	li	a5,0
    800026ac:	853e                	mv	a0,a5
    800026ae:	70e2                	ld	ra,56(sp)
    800026b0:	7442                	ld	s0,48(sp)
    800026b2:	6121                	addi	sp,sp,64
    800026b4:	8082                	ret

00000000800026b6 <i2c_read_interrupt_data>:
    800026b6:	7139                	addi	sp,sp,-64
    800026b8:	fc06                	sd	ra,56(sp)
    800026ba:	f822                	sd	s0,48(sp)
    800026bc:	0080                	addi	s0,sp,64
    800026be:	fca43c23          	sd	a0,-40(s0)
    800026c2:	fcb43823          	sd	a1,-48(s0)
    800026c6:	87b2                	mv	a5,a2
    800026c8:	8736                	mv	a4,a3
    800026ca:	fcf407a3          	sb	a5,-49(s0)
    800026ce:	87ba                	mv	a5,a4
    800026d0:	fcf40723          	sb	a5,-50(s0)
    800026d4:	fe042623          	sw	zero,-20(s0)
    800026d8:	fd843783          	ld	a5,-40(s0)
    800026dc:	4b9c                	lw	a5,16(a5)
    800026de:	0ff7f713          	andi	a4,a5,255
    800026e2:	fd043783          	ld	a5,-48(s0)
    800026e6:	00e78023          	sb	a4,0(a5)
    800026ea:	a829                	j	80002704 <i2c_read_interrupt_data+0x4e>
    800026ec:	00003517          	auipc	a0,0x3
    800026f0:	9bc50513          	addi	a0,a0,-1604 # 800050a8 <__rodata_start+0x820>
    800026f4:	ce9fe0ef          	jal	ra,800013dc <printf>
    800026f8:	fcf44783          	lbu	a5,-49(s0)
    800026fc:	2781                	sext.w	a5,a5
    800026fe:	853e                	mv	a0,a5
    80002700:	8e6fe0ef          	jal	ra,800007e6 <waitfor>
    80002704:	fec40793          	addi	a5,s0,-20
    80002708:	85be                	mv	a1,a5
    8000270a:	fd843503          	ld	a0,-40(s0)
    8000270e:	8afff0ef          	jal	ra,80001fbc <wait_till_txrx_operation_Completes>
    80002712:	87aa                	mv	a5,a0
    80002714:	ffe1                	bnez	a5,800026ec <i2c_read_interrupt_data+0x36>
    80002716:	fce44783          	lbu	a5,-50(s0)
    8000271a:	0ff7f793          	andi	a5,a5,255
    8000271e:	eb81                	bnez	a5,8000272e <i2c_read_interrupt_data+0x78>
    80002720:	00003517          	auipc	a0,0x3
    80002724:	a6050513          	addi	a0,a0,-1440 # 80005180 <__rodata_start+0x8f8>
    80002728:	cb5fe0ef          	jal	ra,800013dc <printf>
    8000272c:	a821                	j	80002744 <i2c_read_interrupt_data+0x8e>
    8000272e:	00003517          	auipc	a0,0x3
    80002732:	a6250513          	addi	a0,a0,-1438 # 80005190 <__rodata_start+0x908>
    80002736:	ca7fe0ef          	jal	ra,800013dc <printf>
    8000273a:	fd843783          	ld	a5,-40(s0)
    8000273e:	0c300713          	li	a4,195
    80002742:	c798                	sw	a4,8(a5)
    80002744:	4781                	li	a5,0
    80002746:	853e                	mv	a0,a5
    80002748:	70e2                	ld	ra,56(sp)
    8000274a:	7442                	ld	s0,48(sp)
    8000274c:	6121                	addi	sp,sp,64
    8000274e:	8082                	ret

0000000080002750 <i2c_write_interrupt_data>:
    80002750:	7179                	addi	sp,sp,-48
    80002752:	f406                	sd	ra,40(sp)
    80002754:	f022                	sd	s0,32(sp)
    80002756:	1800                	addi	s0,sp,48
    80002758:	fca43c23          	sd	a0,-40(s0)
    8000275c:	87ae                	mv	a5,a1
    8000275e:	8736                	mv	a4,a3
    80002760:	fcf40ba3          	sb	a5,-41(s0)
    80002764:	87b2                	mv	a5,a2
    80002766:	fcf40b23          	sb	a5,-42(s0)
    8000276a:	87ba                	mv	a5,a4
    8000276c:	fcf40aa3          	sb	a5,-43(s0)
    80002770:	fe042423          	sw	zero,-24(s0)
    80002774:	fd744783          	lbu	a5,-41(s0)
    80002778:	0007871b          	sext.w	a4,a5
    8000277c:	fd843783          	ld	a5,-40(s0)
    80002780:	cb98                	sw	a4,16(a5)
    80002782:	fe840793          	addi	a5,s0,-24
    80002786:	85be                	mv	a1,a5
    80002788:	fd843503          	ld	a0,-40(s0)
    8000278c:	831ff0ef          	jal	ra,80001fbc <wait_till_txrx_operation_Completes>
    80002790:	87aa                	mv	a5,a0
    80002792:	fef42623          	sw	a5,-20(s0)
    80002796:	fec42783          	lw	a5,-20(s0)
    8000279a:	2781                	sext.w	a5,a5
    8000279c:	cf99                	beqz	a5,800027ba <i2c_write_interrupt_data+0x6a>
    8000279e:	00002517          	auipc	a0,0x2
    800027a2:	73a50513          	addi	a0,a0,1850 # 80004ed8 <__rodata_start+0x650>
    800027a6:	c37fe0ef          	jal	ra,800013dc <printf>
    800027aa:	fd843783          	ld	a5,-40(s0)
    800027ae:	0c300713          	li	a4,195
    800027b2:	c798                	sw	a4,8(a5)
    800027b4:	faf00793          	li	a5,-81
    800027b8:	a0b1                	j	80002804 <i2c_write_interrupt_data+0xb4>
    800027ba:	fe842783          	lw	a5,-24(s0)
    800027be:	8ba1                	andi	a5,a5,8
    800027c0:	2781                	sext.w	a5,a5
    800027c2:	cf91                	beqz	a5,800027de <i2c_write_interrupt_data+0x8e>
    800027c4:	fd843783          	ld	a5,-40(s0)
    800027c8:	0c300713          	li	a4,195
    800027cc:	c798                	sw	a4,8(a5)
    800027ce:	00002517          	auipc	a0,0x2
    800027d2:	75250513          	addi	a0,a0,1874 # 80004f20 <__rodata_start+0x698>
    800027d6:	c07fe0ef          	jal	ra,800013dc <printf>
    800027da:	57f1                	li	a5,-4
    800027dc:	a025                	j	80002804 <i2c_write_interrupt_data+0xb4>
    800027de:	fd544783          	lbu	a5,-43(s0)
    800027e2:	0ff7f713          	andi	a4,a5,255
    800027e6:	4785                	li	a5,1
    800027e8:	00f71d63          	bne	a4,a5,80002802 <i2c_write_interrupt_data+0xb2>
    800027ec:	fd843783          	ld	a5,-40(s0)
    800027f0:	0c300713          	li	a4,195
    800027f4:	c798                	sw	a4,8(a5)
    800027f6:	00003517          	auipc	a0,0x3
    800027fa:	9aa50513          	addi	a0,a0,-1622 # 800051a0 <__rodata_start+0x918>
    800027fe:	bdffe0ef          	jal	ra,800013dc <printf>
    80002802:	4781                	li	a5,0
    80002804:	853e                	mv	a0,a5
    80002806:	70a2                	ld	ra,40(sp)
    80002808:	7402                	ld	s0,32(sp)
    8000280a:	6145                	addi	sp,sp,48
    8000280c:	8082                	ret

000000008000280e <section_init>:
    8000280e:	1141                	addi	sp,sp,-16
    80002810:	e422                	sd	s0,8(sp)
    80002812:	0800                	addi	s0,sp,16
    80002814:	0001                	nop
    80002816:	6422                	ld	s0,8(sp)
    80002818:	0141                	addi	sp,sp,16
    8000281a:	8082                	ret

000000008000281c <trap_init>:
    8000281c:	1141                	addi	sp,sp,-16
    8000281e:	e406                	sd	ra,8(sp)
    80002820:	e022                	sd	s0,0(sp)
    80002822:	0800                	addi	s0,sp,16
    80002824:	00003517          	auipc	a0,0x3
    80002828:	9a450513          	addi	a0,a0,-1628 # 800051c8 <__rodata_start+0x940>
    8000282c:	db2fe0ef          	jal	ra,80000dde <log_trace>
    80002830:	0000b797          	auipc	a5,0xb
    80002834:	ce078793          	addi	a5,a5,-800 # 8000d510 <mcause_interrupt_table>
    80002838:	ffffe717          	auipc	a4,0xffffe
    8000283c:	4aa70713          	addi	a4,a4,1194 # 80000ce2 <default_handler>
    80002840:	e398                	sd	a4,0(a5)
    80002842:	0000b797          	auipc	a5,0xb
    80002846:	cce78793          	addi	a5,a5,-818 # 8000d510 <mcause_interrupt_table>
    8000284a:	ffffe717          	auipc	a4,0xffffe
    8000284e:	49870713          	addi	a4,a4,1176 # 80000ce2 <default_handler>
    80002852:	e798                	sd	a4,8(a5)
    80002854:	0000b797          	auipc	a5,0xb
    80002858:	cbc78793          	addi	a5,a5,-836 # 8000d510 <mcause_interrupt_table>
    8000285c:	ffffe717          	auipc	a4,0xffffe
    80002860:	48670713          	addi	a4,a4,1158 # 80000ce2 <default_handler>
    80002864:	eb98                	sd	a4,16(a5)
    80002866:	0000b797          	auipc	a5,0xb
    8000286a:	caa78793          	addi	a5,a5,-854 # 8000d510 <mcause_interrupt_table>
    8000286e:	ffffe717          	auipc	a4,0xffffe
    80002872:	47470713          	addi	a4,a4,1140 # 80000ce2 <default_handler>
    80002876:	ef98                	sd	a4,24(a5)
    80002878:	0000b797          	auipc	a5,0xb
    8000287c:	c9878793          	addi	a5,a5,-872 # 8000d510 <mcause_interrupt_table>
    80002880:	ffffe717          	auipc	a4,0xffffe
    80002884:	46270713          	addi	a4,a4,1122 # 80000ce2 <default_handler>
    80002888:	f398                	sd	a4,32(a5)
    8000288a:	0000b797          	auipc	a5,0xb
    8000288e:	c8678793          	addi	a5,a5,-890 # 8000d510 <mcause_interrupt_table>
    80002892:	ffffe717          	auipc	a4,0xffffe
    80002896:	45070713          	addi	a4,a4,1104 # 80000ce2 <default_handler>
    8000289a:	f798                	sd	a4,40(a5)
    8000289c:	0000b797          	auipc	a5,0xb
    800028a0:	c7478793          	addi	a5,a5,-908 # 8000d510 <mcause_interrupt_table>
    800028a4:	ffffe717          	auipc	a4,0xffffe
    800028a8:	43e70713          	addi	a4,a4,1086 # 80000ce2 <default_handler>
    800028ac:	fb98                	sd	a4,48(a5)
    800028ae:	0000b797          	auipc	a5,0xb
    800028b2:	c6278793          	addi	a5,a5,-926 # 8000d510 <mcause_interrupt_table>
    800028b6:	00000717          	auipc	a4,0x0
    800028ba:	2d870713          	addi	a4,a4,728 # 80002b8e <mach_clint_handler>
    800028be:	ff98                	sd	a4,56(a5)
    800028c0:	0000b797          	auipc	a5,0xb
    800028c4:	c5078793          	addi	a5,a5,-944 # 8000d510 <mcause_interrupt_table>
    800028c8:	ffffe717          	auipc	a4,0xffffe
    800028cc:	41a70713          	addi	a4,a4,1050 # 80000ce2 <default_handler>
    800028d0:	e3b8                	sd	a4,64(a5)
    800028d2:	0000b797          	auipc	a5,0xb
    800028d6:	c3e78793          	addi	a5,a5,-962 # 8000d510 <mcause_interrupt_table>
    800028da:	ffffe717          	auipc	a4,0xffffe
    800028de:	40870713          	addi	a4,a4,1032 # 80000ce2 <default_handler>
    800028e2:	e7b8                	sd	a4,72(a5)
    800028e4:	0000b797          	auipc	a5,0xb
    800028e8:	c2c78793          	addi	a5,a5,-980 # 8000d510 <mcause_interrupt_table>
    800028ec:	ffffe717          	auipc	a4,0xffffe
    800028f0:	3f670713          	addi	a4,a4,1014 # 80000ce2 <default_handler>
    800028f4:	ebb8                	sd	a4,80(a5)
    800028f6:	0000b797          	auipc	a5,0xb
    800028fa:	c1a78793          	addi	a5,a5,-998 # 8000d510 <mcause_interrupt_table>
    800028fe:	00000717          	auipc	a4,0x0
    80002902:	43270713          	addi	a4,a4,1074 # 80002d30 <mach_plic_handler>
    80002906:	efb8                	sd	a4,88(a5)
    80002908:	0000b797          	auipc	a5,0xb
    8000290c:	c0878793          	addi	a5,a5,-1016 # 8000d510 <mcause_interrupt_table>
    80002910:	ffffe717          	auipc	a4,0xffffe
    80002914:	3d270713          	addi	a4,a4,978 # 80000ce2 <default_handler>
    80002918:	f3b8                	sd	a4,96(a5)
    8000291a:	0000b797          	auipc	a5,0xb
    8000291e:	bf678793          	addi	a5,a5,-1034 # 8000d510 <mcause_interrupt_table>
    80002922:	ffffe717          	auipc	a4,0xffffe
    80002926:	3c070713          	addi	a4,a4,960 # 80000ce2 <default_handler>
    8000292a:	f7b8                	sd	a4,104(a5)
    8000292c:	0000b797          	auipc	a5,0xb
    80002930:	be478793          	addi	a5,a5,-1052 # 8000d510 <mcause_interrupt_table>
    80002934:	ffffe717          	auipc	a4,0xffffe
    80002938:	3ae70713          	addi	a4,a4,942 # 80000ce2 <default_handler>
    8000293c:	fbb8                	sd	a4,112(a5)
    8000293e:	0000b797          	auipc	a5,0xb
    80002942:	bd278793          	addi	a5,a5,-1070 # 8000d510 <mcause_interrupt_table>
    80002946:	ffffe717          	auipc	a4,0xffffe
    8000294a:	39c70713          	addi	a4,a4,924 # 80000ce2 <default_handler>
    8000294e:	ffb8                	sd	a4,120(a5)
    80002950:	0000b797          	auipc	a5,0xb
    80002954:	c4078793          	addi	a5,a5,-960 # 8000d590 <mcause_trap_table>
    80002958:	ffffe717          	auipc	a4,0xffffe
    8000295c:	38a70713          	addi	a4,a4,906 # 80000ce2 <default_handler>
    80002960:	e398                	sd	a4,0(a5)
    80002962:	0000b797          	auipc	a5,0xb
    80002966:	c2e78793          	addi	a5,a5,-978 # 8000d590 <mcause_trap_table>
    8000296a:	ffffe717          	auipc	a4,0xffffe
    8000296e:	37870713          	addi	a4,a4,888 # 80000ce2 <default_handler>
    80002972:	e798                	sd	a4,8(a5)
    80002974:	0000b797          	auipc	a5,0xb
    80002978:	c1c78793          	addi	a5,a5,-996 # 8000d590 <mcause_trap_table>
    8000297c:	ffffe717          	auipc	a4,0xffffe
    80002980:	36670713          	addi	a4,a4,870 # 80000ce2 <default_handler>
    80002984:	eb98                	sd	a4,16(a5)
    80002986:	0000b797          	auipc	a5,0xb
    8000298a:	c0a78793          	addi	a5,a5,-1014 # 8000d590 <mcause_trap_table>
    8000298e:	ffffe717          	auipc	a4,0xffffe
    80002992:	35470713          	addi	a4,a4,852 # 80000ce2 <default_handler>
    80002996:	ef98                	sd	a4,24(a5)
    80002998:	0000b797          	auipc	a5,0xb
    8000299c:	bf878793          	addi	a5,a5,-1032 # 8000d590 <mcause_trap_table>
    800029a0:	ffffe717          	auipc	a4,0xffffe
    800029a4:	34270713          	addi	a4,a4,834 # 80000ce2 <default_handler>
    800029a8:	f398                	sd	a4,32(a5)
    800029aa:	0000b797          	auipc	a5,0xb
    800029ae:	be678793          	addi	a5,a5,-1050 # 8000d590 <mcause_trap_table>
    800029b2:	ffffe717          	auipc	a4,0xffffe
    800029b6:	33070713          	addi	a4,a4,816 # 80000ce2 <default_handler>
    800029ba:	f798                	sd	a4,40(a5)
    800029bc:	0000b797          	auipc	a5,0xb
    800029c0:	bd478793          	addi	a5,a5,-1068 # 8000d590 <mcause_trap_table>
    800029c4:	ffffe717          	auipc	a4,0xffffe
    800029c8:	31e70713          	addi	a4,a4,798 # 80000ce2 <default_handler>
    800029cc:	fb98                	sd	a4,48(a5)
    800029ce:	0000b797          	auipc	a5,0xb
    800029d2:	bc278793          	addi	a5,a5,-1086 # 8000d590 <mcause_trap_table>
    800029d6:	ffffe717          	auipc	a4,0xffffe
    800029da:	30c70713          	addi	a4,a4,780 # 80000ce2 <default_handler>
    800029de:	ff98                	sd	a4,56(a5)
    800029e0:	0000b797          	auipc	a5,0xb
    800029e4:	bb078793          	addi	a5,a5,-1104 # 8000d590 <mcause_trap_table>
    800029e8:	ffffe717          	auipc	a4,0xffffe
    800029ec:	2fa70713          	addi	a4,a4,762 # 80000ce2 <default_handler>
    800029f0:	e3b8                	sd	a4,64(a5)
    800029f2:	0000b797          	auipc	a5,0xb
    800029f6:	b9e78793          	addi	a5,a5,-1122 # 8000d590 <mcause_trap_table>
    800029fa:	ffffe717          	auipc	a4,0xffffe
    800029fe:	2e870713          	addi	a4,a4,744 # 80000ce2 <default_handler>
    80002a02:	e7b8                	sd	a4,72(a5)
    80002a04:	0000b797          	auipc	a5,0xb
    80002a08:	b8c78793          	addi	a5,a5,-1140 # 8000d590 <mcause_trap_table>
    80002a0c:	ffffe717          	auipc	a4,0xffffe
    80002a10:	2d670713          	addi	a4,a4,726 # 80000ce2 <default_handler>
    80002a14:	ebb8                	sd	a4,80(a5)
    80002a16:	0000b797          	auipc	a5,0xb
    80002a1a:	b7a78793          	addi	a5,a5,-1158 # 8000d590 <mcause_trap_table>
    80002a1e:	ffffe717          	auipc	a4,0xffffe
    80002a22:	2c470713          	addi	a4,a4,708 # 80000ce2 <default_handler>
    80002a26:	efb8                	sd	a4,88(a5)
    80002a28:	0000b797          	auipc	a5,0xb
    80002a2c:	b6878793          	addi	a5,a5,-1176 # 8000d590 <mcause_trap_table>
    80002a30:	ffffe717          	auipc	a4,0xffffe
    80002a34:	2b270713          	addi	a4,a4,690 # 80000ce2 <default_handler>
    80002a38:	f3b8                	sd	a4,96(a5)
    80002a3a:	0000b797          	auipc	a5,0xb
    80002a3e:	b5678793          	addi	a5,a5,-1194 # 8000d590 <mcause_trap_table>
    80002a42:	ffffe717          	auipc	a4,0xffffe
    80002a46:	2a070713          	addi	a4,a4,672 # 80000ce2 <default_handler>
    80002a4a:	f7b8                	sd	a4,104(a5)
    80002a4c:	0000b797          	auipc	a5,0xb
    80002a50:	b4478793          	addi	a5,a5,-1212 # 8000d590 <mcause_trap_table>
    80002a54:	ffffe717          	auipc	a4,0xffffe
    80002a58:	28e70713          	addi	a4,a4,654 # 80000ce2 <default_handler>
    80002a5c:	fbb8                	sd	a4,112(a5)
    80002a5e:	0000b797          	auipc	a5,0xb
    80002a62:	b3278793          	addi	a5,a5,-1230 # 8000d590 <mcause_trap_table>
    80002a66:	ffffe717          	auipc	a4,0xffffe
    80002a6a:	27c70713          	addi	a4,a4,636 # 80000ce2 <default_handler>
    80002a6e:	ffb8                	sd	a4,120(a5)
    80002a70:	00002517          	auipc	a0,0x2
    80002a74:	77050513          	addi	a0,a0,1904 # 800051e0 <__rodata_start+0x958>
    80002a78:	b66fe0ef          	jal	ra,80000dde <log_trace>
    80002a7c:	0001                	nop
    80002a7e:	60a2                	ld	ra,8(sp)
    80002a80:	6402                	ld	s0,0(sp)
    80002a82:	0141                	addi	sp,sp,16
    80002a84:	8082                	ret

0000000080002a86 <init>:
    80002a86:	1141                	addi	sp,sp,-16
    80002a88:	e406                	sd	ra,8(sp)
    80002a8a:	e022                	sd	s0,0(sp)
    80002a8c:	0800                	addi	s0,sp,16
    80002a8e:	99bfe0ef          	jal	ra,80001428 <uart_init>
    80002a92:	00002517          	auipc	a0,0x2
    80002a96:	76650513          	addi	a0,a0,1894 # 800051f8 <__rodata_start+0x970>
    80002a9a:	b44fe0ef          	jal	ra,80000dde <log_trace>
    80002a9e:	d7fff0ef          	jal	ra,8000281c <trap_init>
    80002aa2:	baffd0ef          	jal	ra,80000650 <main>
    80002aa6:	00002517          	auipc	a0,0x2
    80002aaa:	76250513          	addi	a0,a0,1890 # 80005208 <__rodata_start+0x980>
    80002aae:	b30fe0ef          	jal	ra,80000dde <log_trace>
    80002ab2:	0001                	nop
    80002ab4:	60a2                	ld	ra,8(sp)
    80002ab6:	6402                	ld	s0,0(sp)
    80002ab8:	0141                	addi	sp,sp,16
    80002aba:	8082                	ret

0000000080002abc <mtime_low>:
    80002abc:	1141                	addi	sp,sp,-16
    80002abe:	e422                	sd	s0,8(sp)
    80002ac0:	0800                	addi	s0,sp,16
    80002ac2:	0200c7b7          	lui	a5,0x200c
    80002ac6:	17e1                	addi	a5,a5,-8
    80002ac8:	439c                	lw	a5,0(a5)
    80002aca:	853e                	mv	a0,a5
    80002acc:	6422                	ld	s0,8(sp)
    80002ace:	0141                	addi	sp,sp,16
    80002ad0:	8082                	ret

0000000080002ad2 <mtime_high>:
    80002ad2:	1141                	addi	sp,sp,-16
    80002ad4:	e422                	sd	s0,8(sp)
    80002ad6:	0800                	addi	s0,sp,16
    80002ad8:	0200c7b7          	lui	a5,0x200c
    80002adc:	17f1                	addi	a5,a5,-4
    80002ade:	439c                	lw	a5,0(a5)
    80002ae0:	2781                	sext.w	a5,a5
    80002ae2:	853e                	mv	a0,a5
    80002ae4:	6422                	ld	s0,8(sp)
    80002ae6:	0141                	addi	sp,sp,16
    80002ae8:	8082                	ret

0000000080002aea <get_timer_value>:
    80002aea:	1101                	addi	sp,sp,-32
    80002aec:	ec06                	sd	ra,24(sp)
    80002aee:	e822                	sd	s0,16(sp)
    80002af0:	e426                	sd	s1,8(sp)
    80002af2:	1000                	addi	s0,sp,32
    80002af4:	fdfff0ef          	jal	ra,80002ad2 <mtime_high>
    80002af8:	87aa                	mv	a5,a0
    80002afa:	2781                	sext.w	a5,a5
    80002afc:	1782                	slli	a5,a5,0x20
    80002afe:	9381                	srli	a5,a5,0x20
    80002b00:	02079493          	slli	s1,a5,0x20
    80002b04:	fb9ff0ef          	jal	ra,80002abc <mtime_low>
    80002b08:	87aa                	mv	a5,a0
    80002b0a:	2781                	sext.w	a5,a5
    80002b0c:	1782                	slli	a5,a5,0x20
    80002b0e:	9381                	srli	a5,a5,0x20
    80002b10:	8fc5                	or	a5,a5,s1
    80002b12:	853e                	mv	a0,a5
    80002b14:	60e2                	ld	ra,24(sp)
    80002b16:	6442                	ld	s0,16(sp)
    80002b18:	64a2                	ld	s1,8(sp)
    80002b1a:	6105                	addi	sp,sp,32
    80002b1c:	8082                	ret

0000000080002b1e <configure_counter>:
    80002b1e:	1101                	addi	sp,sp,-32
    80002b20:	ec06                	sd	ra,24(sp)
    80002b22:	e822                	sd	s0,16(sp)
    80002b24:	1000                	addi	s0,sp,32
    80002b26:	fea43423          	sd	a0,-24(s0)
    80002b2a:	00002517          	auipc	a0,0x2
    80002b2e:	6ee50513          	addi	a0,a0,1774 # 80005218 <__rodata_start+0x990>
    80002b32:	aacfe0ef          	jal	ra,80000dde <log_trace>
    80002b36:	82818793          	addi	a5,gp,-2008 # 80005fa8 <mtime>
    80002b3a:	639c                	ld	a5,0(a5)
    80002b3c:	6394                	ld	a3,0(a5)
    80002b3e:	83018793          	addi	a5,gp,-2000 # 80005fb0 <mtimecmp>
    80002b42:	639c                	ld	a5,0(a5)
    80002b44:	fe843703          	ld	a4,-24(s0)
    80002b48:	9736                	add	a4,a4,a3
    80002b4a:	e398                	sd	a4,0(a5)
    80002b4c:	83018793          	addi	a5,gp,-2000 # 80005fb0 <mtimecmp>
    80002b50:	639c                	ld	a5,0(a5)
    80002b52:	639c                	ld	a5,0(a5)
    80002b54:	85be                	mv	a1,a5
    80002b56:	00002517          	auipc	a0,0x2
    80002b5a:	6e250513          	addi	a0,a0,1762 # 80005238 <__rodata_start+0x9b0>
    80002b5e:	aeefe0ef          	jal	ra,80000e4c <log_debug>
    80002b62:	82818793          	addi	a5,gp,-2008 # 80005fa8 <mtime>
    80002b66:	639c                	ld	a5,0(a5)
    80002b68:	639c                	ld	a5,0(a5)
    80002b6a:	85be                	mv	a1,a5
    80002b6c:	00002517          	auipc	a0,0x2
    80002b70:	6e450513          	addi	a0,a0,1764 # 80005250 <__rodata_start+0x9c8>
    80002b74:	ad8fe0ef          	jal	ra,80000e4c <log_debug>
    80002b78:	00002517          	auipc	a0,0x2
    80002b7c:	6f050513          	addi	a0,a0,1776 # 80005268 <__rodata_start+0x9e0>
    80002b80:	a5efe0ef          	jal	ra,80000dde <log_trace>
    80002b84:	0001                	nop
    80002b86:	60e2                	ld	ra,24(sp)
    80002b88:	6442                	ld	s0,16(sp)
    80002b8a:	6105                	addi	sp,sp,32
    80002b8c:	8082                	ret

0000000080002b8e <mach_clint_handler>:
    80002b8e:	1101                	addi	sp,sp,-32
    80002b90:	ec06                	sd	ra,24(sp)
    80002b92:	e822                	sd	s0,16(sp)
    80002b94:	1000                	addi	s0,sp,32
    80002b96:	fea43423          	sd	a0,-24(s0)
    80002b9a:	feb43023          	sd	a1,-32(s0)
    80002b9e:	00002517          	auipc	a0,0x2
    80002ba2:	6ea50513          	addi	a0,a0,1770 # 80005288 <__rodata_start+0xa00>
    80002ba6:	a38fe0ef          	jal	ra,80000dde <log_trace>
    80002baa:	83018793          	addi	a5,gp,-2000 # 80005fb0 <mtimecmp>
    80002bae:	639c                	ld	a5,0(a5)
    80002bb0:	577d                	li	a4,-1
    80002bb2:	e398                	sd	a4,0(a5)
    80002bb4:	00002517          	auipc	a0,0x2
    80002bb8:	6f450513          	addi	a0,a0,1780 # 800052a8 <__rodata_start+0xa20>
    80002bbc:	a46fe0ef          	jal	ra,80000e02 <log_info>
    80002bc0:	00002517          	auipc	a0,0x2
    80002bc4:	70850513          	addi	a0,a0,1800 # 800052c8 <__rodata_start+0xa40>
    80002bc8:	a16fe0ef          	jal	ra,80000dde <log_trace>
    80002bcc:	0001                	nop
    80002bce:	60e2                	ld	ra,24(sp)
    80002bd0:	6442                	ld	s0,16(sp)
    80002bd2:	6105                	addi	sp,sp,32
    80002bd4:	8082                	ret

0000000080002bd6 <interrupt_complete>:
    80002bd6:	7179                	addi	sp,sp,-48
    80002bd8:	f406                	sd	ra,40(sp)
    80002bda:	f022                	sd	s0,32(sp)
    80002bdc:	1800                	addi	s0,sp,48
    80002bde:	87aa                	mv	a5,a0
    80002be0:	fcf42e23          	sw	a5,-36(s0)
    80002be4:	00002517          	auipc	a0,0x2
    80002be8:	70450513          	addi	a0,a0,1796 # 800052e8 <__rodata_start+0xa60>
    80002bec:	9f2fe0ef          	jal	ra,80000dde <log_trace>
    80002bf0:	0c0107b7          	lui	a5,0xc010
    80002bf4:	07c1                	addi	a5,a5,16
    80002bf6:	fef43423          	sd	a5,-24(s0)
    80002bfa:	fe843783          	ld	a5,-24(s0)
    80002bfe:	fdc42703          	lw	a4,-36(s0)
    80002c02:	c398                	sw	a4,0(a5)
    80002c04:	0000b717          	auipc	a4,0xb
    80002c08:	a3470713          	addi	a4,a4,-1484 # 8000d638 <hart0_interrupt_matrix>
    80002c0c:	fdc46783          	lwu	a5,-36(s0)
    80002c10:	0792                	slli	a5,a5,0x4
    80002c12:	97ba                	add	a5,a5,a4
    80002c14:	4709                	li	a4,2
    80002c16:	c798                	sw	a4,8(a5)
    80002c18:	0000b717          	auipc	a4,0xb
    80002c1c:	a2070713          	addi	a4,a4,-1504 # 8000d638 <hart0_interrupt_matrix>
    80002c20:	fdc46783          	lwu	a5,-36(s0)
    80002c24:	0792                	slli	a5,a5,0x4
    80002c26:	97ba                	add	a5,a5,a4
    80002c28:	47dc                	lw	a5,12(a5)
    80002c2a:	2785                	addiw	a5,a5,1
    80002c2c:	0007871b          	sext.w	a4,a5
    80002c30:	0000b697          	auipc	a3,0xb
    80002c34:	a0868693          	addi	a3,a3,-1528 # 8000d638 <hart0_interrupt_matrix>
    80002c38:	fdc46783          	lwu	a5,-36(s0)
    80002c3c:	0792                	slli	a5,a5,0x4
    80002c3e:	97b6                	add	a5,a5,a3
    80002c40:	c7d8                	sw	a4,12(a5)
    80002c42:	0000b717          	auipc	a4,0xb
    80002c46:	9f670713          	addi	a4,a4,-1546 # 8000d638 <hart0_interrupt_matrix>
    80002c4a:	fdc46783          	lwu	a5,-36(s0)
    80002c4e:	0792                	slli	a5,a5,0x4
    80002c50:	97ba                	add	a5,a5,a4
    80002c52:	4798                	lw	a4,8(a5)
    80002c54:	fdc42783          	lw	a5,-36(s0)
    80002c58:	863a                	mv	a2,a4
    80002c5a:	85be                	mv	a1,a5
    80002c5c:	00002517          	auipc	a0,0x2
    80002c60:	6ac50513          	addi	a0,a0,1708 # 80005308 <__rodata_start+0xa80>
    80002c64:	9e8fe0ef          	jal	ra,80000e4c <log_debug>
    80002c68:	0000b717          	auipc	a4,0xb
    80002c6c:	9d070713          	addi	a4,a4,-1584 # 8000d638 <hart0_interrupt_matrix>
    80002c70:	fdc46783          	lwu	a5,-36(s0)
    80002c74:	0792                	slli	a5,a5,0x4
    80002c76:	97ba                	add	a5,a5,a4
    80002c78:	438c                	lw	a1,0(a5)
    80002c7a:	0000b717          	auipc	a4,0xb
    80002c7e:	9be70713          	addi	a4,a4,-1602 # 8000d638 <hart0_interrupt_matrix>
    80002c82:	fdc46783          	lwu	a5,-36(s0)
    80002c86:	0792                	slli	a5,a5,0x4
    80002c88:	97ba                	add	a5,a5,a4
    80002c8a:	4790                	lw	a2,8(a5)
    80002c8c:	0000b717          	auipc	a4,0xb
    80002c90:	9ac70713          	addi	a4,a4,-1620 # 8000d638 <hart0_interrupt_matrix>
    80002c94:	fdc46783          	lwu	a5,-36(s0)
    80002c98:	0792                	slli	a5,a5,0x4
    80002c9a:	97ba                	add	a5,a5,a4
    80002c9c:	43d4                	lw	a3,4(a5)
    80002c9e:	0000b717          	auipc	a4,0xb
    80002ca2:	99a70713          	addi	a4,a4,-1638 # 8000d638 <hart0_interrupt_matrix>
    80002ca6:	fdc46783          	lwu	a5,-36(s0)
    80002caa:	0792                	slli	a5,a5,0x4
    80002cac:	97ba                	add	a5,a5,a4
    80002cae:	47dc                	lw	a5,12(a5)
    80002cb0:	873e                	mv	a4,a5
    80002cb2:	00002517          	auipc	a0,0x2
    80002cb6:	67e50513          	addi	a0,a0,1662 # 80005330 <__rodata_start+0xaa8>
    80002cba:	992fe0ef          	jal	ra,80000e4c <log_debug>
    80002cbe:	00002517          	auipc	a0,0x2
    80002cc2:	6ca50513          	addi	a0,a0,1738 # 80005388 <__rodata_start+0xb00>
    80002cc6:	918fe0ef          	jal	ra,80000dde <log_trace>
    80002cca:	0001                	nop
    80002ccc:	70a2                	ld	ra,40(sp)
    80002cce:	7402                	ld	s0,32(sp)
    80002cd0:	6145                	addi	sp,sp,48
    80002cd2:	8082                	ret

0000000080002cd4 <interrupt_claim_request>:
    80002cd4:	1101                	addi	sp,sp,-32
    80002cd6:	ec06                	sd	ra,24(sp)
    80002cd8:	e822                	sd	s0,16(sp)
    80002cda:	1000                	addi	s0,sp,32
    80002cdc:	fe043423          	sd	zero,-24(s0)
    80002ce0:	00002517          	auipc	a0,0x2
    80002ce4:	6c850513          	addi	a0,a0,1736 # 800053a8 <__rodata_start+0xb20>
    80002ce8:	8f6fe0ef          	jal	ra,80000dde <log_trace>
    80002cec:	0c0107b7          	lui	a5,0xc010
    80002cf0:	07c1                	addi	a5,a5,16
    80002cf2:	fef43423          	sd	a5,-24(s0)
    80002cf6:	fe843783          	ld	a5,-24(s0)
    80002cfa:	439c                	lw	a5,0(a5)
    80002cfc:	fef42223          	sw	a5,-28(s0)
    80002d00:	fe442783          	lw	a5,-28(s0)
    80002d04:	fe843603          	ld	a2,-24(s0)
    80002d08:	85be                	mv	a1,a5
    80002d0a:	00002517          	auipc	a0,0x2
    80002d0e:	6c650513          	addi	a0,a0,1734 # 800053d0 <__rodata_start+0xb48>
    80002d12:	93afe0ef          	jal	ra,80000e4c <log_debug>
    80002d16:	00002517          	auipc	a0,0x2
    80002d1a:	6ea50513          	addi	a0,a0,1770 # 80005400 <__rodata_start+0xb78>
    80002d1e:	8c0fe0ef          	jal	ra,80000dde <log_trace>
    80002d22:	fe442783          	lw	a5,-28(s0)
    80002d26:	853e                	mv	a0,a5
    80002d28:	60e2                	ld	ra,24(sp)
    80002d2a:	6442                	ld	s0,16(sp)
    80002d2c:	6105                	addi	sp,sp,32
    80002d2e:	8082                	ret

0000000080002d30 <mach_plic_handler>:
    80002d30:	7179                	addi	sp,sp,-48
    80002d32:	f406                	sd	ra,40(sp)
    80002d34:	f022                	sd	s0,32(sp)
    80002d36:	1800                	addi	s0,sp,48
    80002d38:	fca43c23          	sd	a0,-40(s0)
    80002d3c:	fcb43823          	sd	a1,-48(s0)
    80002d40:	00002517          	auipc	a0,0x2
    80002d44:	6e050513          	addi	a0,a0,1760 # 80005420 <__rodata_start+0xb98>
    80002d48:	896fe0ef          	jal	ra,80000dde <log_trace>
    80002d4c:	f89ff0ef          	jal	ra,80002cd4 <interrupt_claim_request>
    80002d50:	87aa                	mv	a5,a0
    80002d52:	fef42623          	sw	a5,-20(s0)
    80002d56:	fec42783          	lw	a5,-20(s0)
    80002d5a:	85be                	mv	a1,a5
    80002d5c:	00002517          	auipc	a0,0x2
    80002d60:	6e450513          	addi	a0,a0,1764 # 80005440 <__rodata_start+0xbb8>
    80002d64:	8e8fe0ef          	jal	ra,80000e4c <log_debug>
    80002d68:	fec42783          	lw	a5,-20(s0)
    80002d6c:	2781                	sext.w	a5,a5
    80002d6e:	cb81                	beqz	a5,80002d7e <mach_plic_handler+0x4e>
    80002d70:	fec42783          	lw	a5,-20(s0)
    80002d74:	0007871b          	sext.w	a4,a5
    80002d78:	47f1                	li	a5,28
    80002d7a:	00e7fb63          	bgeu	a5,a4,80002d90 <mach_plic_handler+0x60>
    80002d7e:	fec42783          	lw	a5,-20(s0)
    80002d82:	85be                	mv	a1,a5
    80002d84:	00002517          	auipc	a0,0x2
    80002d88:	6dc50513          	addi	a0,a0,1756 # 80005460 <__rodata_start+0xbd8>
    80002d8c:	978fe0ef          	jal	ra,80000f04 <log_fatal>
    80002d90:	0000b717          	auipc	a4,0xb
    80002d94:	8a870713          	addi	a4,a4,-1880 # 8000d638 <hart0_interrupt_matrix>
    80002d98:	fec46783          	lwu	a5,-20(s0)
    80002d9c:	0792                	slli	a5,a5,0x4
    80002d9e:	97ba                	add	a5,a5,a4
    80002da0:	4705                	li	a4,1
    80002da2:	c798                	sw	a4,8(a5)
    80002da4:	0000b717          	auipc	a4,0xb
    80002da8:	89470713          	addi	a4,a4,-1900 # 8000d638 <hart0_interrupt_matrix>
    80002dac:	fec46783          	lwu	a5,-20(s0)
    80002db0:	0792                	slli	a5,a5,0x4
    80002db2:	97ba                	add	a5,a5,a4
    80002db4:	4798                	lw	a4,8(a5)
    80002db6:	fec42783          	lw	a5,-20(s0)
    80002dba:	863a                	mv	a2,a4
    80002dbc:	85be                	mv	a1,a5
    80002dbe:	00002517          	auipc	a0,0x2
    80002dc2:	54a50513          	addi	a0,a0,1354 # 80005308 <__rodata_start+0xa80>
    80002dc6:	886fe0ef          	jal	ra,80000e4c <log_debug>
    80002dca:	0000b717          	auipc	a4,0xb
    80002dce:	a2e70713          	addi	a4,a4,-1490 # 8000d7f8 <isr_table>
    80002dd2:	fec46783          	lwu	a5,-20(s0)
    80002dd6:	078e                	slli	a5,a5,0x3
    80002dd8:	97ba                	add	a5,a5,a4
    80002dda:	6398                	ld	a4,0(a5)
    80002ddc:	fec42783          	lw	a5,-20(s0)
    80002de0:	853e                	mv	a0,a5
    80002de2:	9702                	jalr	a4
    80002de4:	fec42783          	lw	a5,-20(s0)
    80002de8:	853e                	mv	a0,a5
    80002dea:	dedff0ef          	jal	ra,80002bd6 <interrupt_complete>
    80002dee:	fec42783          	lw	a5,-20(s0)
    80002df2:	85be                	mv	a1,a5
    80002df4:	00002517          	auipc	a0,0x2
    80002df8:	6a450513          	addi	a0,a0,1700 # 80005498 <__rodata_start+0xc10>
    80002dfc:	850fe0ef          	jal	ra,80000e4c <log_debug>
    80002e00:	00002517          	auipc	a0,0x2
    80002e04:	6b850513          	addi	a0,a0,1720 # 800054b8 <__rodata_start+0xc30>
    80002e08:	fd7fd0ef          	jal	ra,80000dde <log_trace>
    80002e0c:	0001                	nop
    80002e0e:	70a2                	ld	ra,40(sp)
    80002e10:	7402                	ld	s0,32(sp)
    80002e12:	6145                	addi	sp,sp,48
    80002e14:	8082                	ret

0000000080002e16 <isr_default>:
    80002e16:	1101                	addi	sp,sp,-32
    80002e18:	ec06                	sd	ra,24(sp)
    80002e1a:	e822                	sd	s0,16(sp)
    80002e1c:	1000                	addi	s0,sp,32
    80002e1e:	87aa                	mv	a5,a0
    80002e20:	fef42623          	sw	a5,-20(s0)
    80002e24:	00002517          	auipc	a0,0x2
    80002e28:	6b450513          	addi	a0,a0,1716 # 800054d8 <__rodata_start+0xc50>
    80002e2c:	fb3fd0ef          	jal	ra,80000dde <log_trace>
    80002e30:	fec42783          	lw	a5,-20(s0)
    80002e34:	2781                	sext.w	a5,a5
    80002e36:	c3a1                	beqz	a5,80002e76 <isr_default+0x60>
    80002e38:	fec42783          	lw	a5,-20(s0)
    80002e3c:	0007871b          	sext.w	a4,a5
    80002e40:	4799                	li	a5,6
    80002e42:	02e7ea63          	bltu	a5,a4,80002e76 <isr_default+0x60>
    80002e46:	4719                	li	a4,6
    80002e48:	fec42783          	lw	a5,-20(s0)
    80002e4c:	40f707bb          	subw	a5,a4,a5
    80002e50:	2781                	sext.w	a5,a5
    80002e52:	2781                	sext.w	a5,a5
    80002e54:	853e                	mv	a0,a5
    80002e56:	75a000ef          	jal	ra,800035b0 <pwm_check_continuous_mode>
    80002e5a:	87aa                	mv	a5,a0
    80002e5c:	ef89                	bnez	a5,80002e76 <isr_default+0x60>
    80002e5e:	4719                	li	a4,6
    80002e60:	fec42783          	lw	a5,-20(s0)
    80002e64:	40f707bb          	subw	a5,a4,a5
    80002e68:	2781                	sext.w	a5,a5
    80002e6a:	2781                	sext.w	a5,a5
    80002e6c:	08000593          	li	a1,128
    80002e70:	853e                	mv	a0,a5
    80002e72:	6b8000ef          	jal	ra,8000352a <set_pwm_control_register>
    80002e76:	fec42783          	lw	a5,-20(s0)
    80002e7a:	85be                	mv	a1,a5
    80002e7c:	00002517          	auipc	a0,0x2
    80002e80:	67450513          	addi	a0,a0,1652 # 800054f0 <__rodata_start+0xc68>
    80002e84:	f7ffd0ef          	jal	ra,80000e02 <log_info>
    80002e88:	00002517          	auipc	a0,0x2
    80002e8c:	68850513          	addi	a0,a0,1672 # 80005510 <__rodata_start+0xc88>
    80002e90:	f4ffd0ef          	jal	ra,80000dde <log_trace>
    80002e94:	0001                	nop
    80002e96:	60e2                	ld	ra,24(sp)
    80002e98:	6442                	ld	s0,16(sp)
    80002e9a:	6105                	addi	sp,sp,32
    80002e9c:	8082                	ret

0000000080002e9e <interrupt_enable>:
    80002e9e:	7139                	addi	sp,sp,-64
    80002ea0:	fc06                	sd	ra,56(sp)
    80002ea2:	f822                	sd	s0,48(sp)
    80002ea4:	0080                	addi	s0,sp,64
    80002ea6:	87aa                	mv	a5,a0
    80002ea8:	fcf42623          	sw	a5,-52(s0)
    80002eac:	fe0407a3          	sb	zero,-17(s0)
    80002eb0:	00002517          	auipc	a0,0x2
    80002eb4:	67850513          	addi	a0,a0,1656 # 80005528 <__rodata_start+0xca0>
    80002eb8:	f27fd0ef          	jal	ra,80000dde <log_trace>
    80002ebc:	fcc42783          	lw	a5,-52(s0)
    80002ec0:	85be                	mv	a1,a5
    80002ec2:	00002517          	auipc	a0,0x2
    80002ec6:	68650513          	addi	a0,a0,1670 # 80005548 <__rodata_start+0xcc0>
    80002eca:	f83fd0ef          	jal	ra,80000e4c <log_debug>
    80002ece:	6609                	lui	a2,0x2
    80002ed0:	0c0005b7          	lui	a1,0xc000
    80002ed4:	00002517          	auipc	a0,0x2
    80002ed8:	68c50513          	addi	a0,a0,1676 # 80005560 <__rodata_start+0xcd8>
    80002edc:	f71fd0ef          	jal	ra,80000e4c <log_debug>
    80002ee0:	fcc42783          	lw	a5,-52(s0)
    80002ee4:	0037d79b          	srliw	a5,a5,0x3
    80002ee8:	2781                	sext.w	a5,a5
    80002eea:	02079713          	slli	a4,a5,0x20
    80002eee:	9301                	srli	a4,a4,0x20
    80002ef0:	0c0027b7          	lui	a5,0xc002
    80002ef4:	97ba                	add	a5,a5,a4
    80002ef6:	fef43023          	sd	a5,-32(s0)
    80002efa:	fe043783          	ld	a5,-32(s0)
    80002efe:	0007c783          	lbu	a5,0(a5) # c002000 <_free_space+0x400fcd8>
    80002f02:	fef407a3          	sb	a5,-17(s0)
    80002f06:	fef44783          	lbu	a5,-17(s0)
    80002f0a:	2781                	sext.w	a5,a5
    80002f0c:	863e                	mv	a2,a5
    80002f0e:	fe043583          	ld	a1,-32(s0)
    80002f12:	00002517          	auipc	a0,0x2
    80002f16:	68650513          	addi	a0,a0,1670 # 80005598 <__rodata_start+0xd10>
    80002f1a:	f33fd0ef          	jal	ra,80000e4c <log_debug>
    80002f1e:	fcc42783          	lw	a5,-52(s0)
    80002f22:	8b9d                	andi	a5,a5,7
    80002f24:	2781                	sext.w	a5,a5
    80002f26:	4705                	li	a4,1
    80002f28:	00f717bb          	sllw	a5,a4,a5
    80002f2c:	2781                	sext.w	a5,a5
    80002f2e:	0187971b          	slliw	a4,a5,0x18
    80002f32:	4187571b          	sraiw	a4,a4,0x18
    80002f36:	fef40783          	lb	a5,-17(s0)
    80002f3a:	8fd9                	or	a5,a5,a4
    80002f3c:	0187979b          	slliw	a5,a5,0x18
    80002f40:	4187d79b          	sraiw	a5,a5,0x18
    80002f44:	fcf40fa3          	sb	a5,-33(s0)
    80002f48:	fe043783          	ld	a5,-32(s0)
    80002f4c:	fdf44703          	lbu	a4,-33(s0)
    80002f50:	00e78023          	sb	a4,0(a5)
    80002f54:	fdf44783          	lbu	a5,-33(s0)
    80002f58:	2781                	sext.w	a5,a5
    80002f5a:	85be                	mv	a1,a5
    80002f5c:	00002517          	auipc	a0,0x2
    80002f60:	66c50513          	addi	a0,a0,1644 # 800055c8 <__rodata_start+0xd40>
    80002f64:	ee9fd0ef          	jal	ra,80000e4c <log_debug>
    80002f68:	00002517          	auipc	a0,0x2
    80002f6c:	68050513          	addi	a0,a0,1664 # 800055e8 <__rodata_start+0xd60>
    80002f70:	e6ffd0ef          	jal	ra,80000dde <log_trace>
    80002f74:	0001                	nop
    80002f76:	70e2                	ld	ra,56(sp)
    80002f78:	7442                	ld	s0,48(sp)
    80002f7a:	6121                	addi	sp,sp,64
    80002f7c:	8082                	ret

0000000080002f7e <interrupt_disable>:
    80002f7e:	7179                	addi	sp,sp,-48
    80002f80:	f406                	sd	ra,40(sp)
    80002f82:	f022                	sd	s0,32(sp)
    80002f84:	1800                	addi	s0,sp,48
    80002f86:	87aa                	mv	a5,a0
    80002f88:	fcf42e23          	sw	a5,-36(s0)
    80002f8c:	fe043423          	sd	zero,-24(s0)
    80002f90:	fe0403a3          	sb	zero,-25(s0)
    80002f94:	00002517          	auipc	a0,0x2
    80002f98:	67450513          	addi	a0,a0,1652 # 80005608 <__rodata_start+0xd80>
    80002f9c:	e43fd0ef          	jal	ra,80000dde <log_trace>
    80002fa0:	fdc42783          	lw	a5,-36(s0)
    80002fa4:	85be                	mv	a1,a5
    80002fa6:	00002517          	auipc	a0,0x2
    80002faa:	5a250513          	addi	a0,a0,1442 # 80005548 <__rodata_start+0xcc0>
    80002fae:	e9ffd0ef          	jal	ra,80000e4c <log_debug>
    80002fb2:	fdc42783          	lw	a5,-36(s0)
    80002fb6:	86be                	mv	a3,a5
    80002fb8:	6609                	lui	a2,0x2
    80002fba:	0c0005b7          	lui	a1,0xc000
    80002fbe:	00002517          	auipc	a0,0x2
    80002fc2:	66a50513          	addi	a0,a0,1642 # 80005628 <__rodata_start+0xda0>
    80002fc6:	e87fd0ef          	jal	ra,80000e4c <log_debug>
    80002fca:	fdc42783          	lw	a5,-36(s0)
    80002fce:	0037d79b          	srliw	a5,a5,0x3
    80002fd2:	2781                	sext.w	a5,a5
    80002fd4:	02079713          	slli	a4,a5,0x20
    80002fd8:	9301                	srli	a4,a4,0x20
    80002fda:	0c0027b7          	lui	a5,0xc002
    80002fde:	97ba                	add	a5,a5,a4
    80002fe0:	fef43423          	sd	a5,-24(s0)
    80002fe4:	fe843783          	ld	a5,-24(s0)
    80002fe8:	0007c783          	lbu	a5,0(a5) # c002000 <_free_space+0x400fcd8>
    80002fec:	fef403a3          	sb	a5,-25(s0)
    80002ff0:	fe744783          	lbu	a5,-25(s0)
    80002ff4:	2781                	sext.w	a5,a5
    80002ff6:	863e                	mv	a2,a5
    80002ff8:	fe843583          	ld	a1,-24(s0)
    80002ffc:	00002517          	auipc	a0,0x2
    80003000:	67450513          	addi	a0,a0,1652 # 80005670 <__rodata_start+0xde8>
    80003004:	e49fd0ef          	jal	ra,80000e4c <log_debug>
    80003008:	fdc42783          	lw	a5,-36(s0)
    8000300c:	8b9d                	andi	a5,a5,7
    8000300e:	2781                	sext.w	a5,a5
    80003010:	4705                	li	a4,1
    80003012:	00f717bb          	sllw	a5,a4,a5
    80003016:	2781                	sext.w	a5,a5
    80003018:	0187979b          	slliw	a5,a5,0x18
    8000301c:	4187d79b          	sraiw	a5,a5,0x18
    80003020:	fff7c793          	not	a5,a5
    80003024:	0187971b          	slliw	a4,a5,0x18
    80003028:	4187571b          	sraiw	a4,a4,0x18
    8000302c:	fe740783          	lb	a5,-25(s0)
    80003030:	8ff9                	and	a5,a5,a4
    80003032:	0187979b          	slliw	a5,a5,0x18
    80003036:	4187d79b          	sraiw	a5,a5,0x18
    8000303a:	fef40323          	sb	a5,-26(s0)
    8000303e:	fe843783          	ld	a5,-24(s0)
    80003042:	fe644703          	lbu	a4,-26(s0)
    80003046:	00e78023          	sb	a4,0(a5)
    8000304a:	0000a717          	auipc	a4,0xa
    8000304e:	5ee70713          	addi	a4,a4,1518 # 8000d638 <hart0_interrupt_matrix>
    80003052:	fdc46783          	lwu	a5,-36(s0)
    80003056:	0792                	slli	a5,a5,0x4
    80003058:	97ba                	add	a5,a5,a4
    8000305a:	0007a423          	sw	zero,8(a5)
    8000305e:	0000a717          	auipc	a4,0xa
    80003062:	5da70713          	addi	a4,a4,1498 # 8000d638 <hart0_interrupt_matrix>
    80003066:	fdc46783          	lwu	a5,-36(s0)
    8000306a:	0792                	slli	a5,a5,0x4
    8000306c:	97ba                	add	a5,a5,a4
    8000306e:	4798                	lw	a4,8(a5)
    80003070:	fdc42783          	lw	a5,-36(s0)
    80003074:	863a                	mv	a2,a4
    80003076:	85be                	mv	a1,a5
    80003078:	00002517          	auipc	a0,0x2
    8000307c:	29050513          	addi	a0,a0,656 # 80005308 <__rodata_start+0xa80>
    80003080:	dcdfd0ef          	jal	ra,80000e4c <log_debug>
    80003084:	00002517          	auipc	a0,0x2
    80003088:	62450513          	addi	a0,a0,1572 # 800056a8 <__rodata_start+0xe20>
    8000308c:	d53fd0ef          	jal	ra,80000dde <log_trace>
    80003090:	0001                	nop
    80003092:	70a2                	ld	ra,40(sp)
    80003094:	7402                	ld	s0,32(sp)
    80003096:	6145                	addi	sp,sp,48
    80003098:	8082                	ret

000000008000309a <set_interrupt_threshold>:
    8000309a:	7179                	addi	sp,sp,-48
    8000309c:	f406                	sd	ra,40(sp)
    8000309e:	f022                	sd	s0,32(sp)
    800030a0:	1800                	addi	s0,sp,48
    800030a2:	87aa                	mv	a5,a0
    800030a4:	fcf42e23          	sw	a5,-36(s0)
    800030a8:	00002517          	auipc	a0,0x2
    800030ac:	62050513          	addi	a0,a0,1568 # 800056c8 <__rodata_start+0xe40>
    800030b0:	d2ffd0ef          	jal	ra,80000dde <log_trace>
    800030b4:	fe043423          	sd	zero,-24(s0)
    800030b8:	0c0107b7          	lui	a5,0xc010
    800030bc:	fef43423          	sd	a5,-24(s0)
    800030c0:	fe843783          	ld	a5,-24(s0)
    800030c4:	fdc42703          	lw	a4,-36(s0)
    800030c8:	c398                	sw	a4,0(a5)
    800030ca:	fe843783          	ld	a5,-24(s0)
    800030ce:	439c                	lw	a5,0(a5)
    800030d0:	85be                	mv	a1,a5
    800030d2:	00002517          	auipc	a0,0x2
    800030d6:	61e50513          	addi	a0,a0,1566 # 800056f0 <__rodata_start+0xe68>
    800030da:	d73fd0ef          	jal	ra,80000e4c <log_debug>
    800030de:	00002517          	auipc	a0,0x2
    800030e2:	63250513          	addi	a0,a0,1586 # 80005710 <__rodata_start+0xe88>
    800030e6:	cf9fd0ef          	jal	ra,80000dde <log_trace>
    800030ea:	0001                	nop
    800030ec:	70a2                	ld	ra,40(sp)
    800030ee:	7402                	ld	s0,32(sp)
    800030f0:	6145                	addi	sp,sp,48
    800030f2:	8082                	ret

00000000800030f4 <set_interrupt_priority>:
    800030f4:	7179                	addi	sp,sp,-48
    800030f6:	f406                	sd	ra,40(sp)
    800030f8:	f022                	sd	s0,32(sp)
    800030fa:	1800                	addi	s0,sp,48
    800030fc:	87aa                	mv	a5,a0
    800030fe:	872e                	mv	a4,a1
    80003100:	fcf42e23          	sw	a5,-36(s0)
    80003104:	87ba                	mv	a5,a4
    80003106:	fcf42c23          	sw	a5,-40(s0)
    8000310a:	fdc42783          	lw	a5,-36(s0)
    8000310e:	85be                	mv	a1,a5
    80003110:	00002517          	auipc	a0,0x2
    80003114:	62050513          	addi	a0,a0,1568 # 80005730 <__rodata_start+0xea8>
    80003118:	cc7fd0ef          	jal	ra,80000dde <log_trace>
    8000311c:	fd842783          	lw	a5,-40(s0)
    80003120:	0027979b          	slliw	a5,a5,0x2
    80003124:	2781                	sext.w	a5,a5
    80003126:	02079713          	slli	a4,a5,0x20
    8000312a:	9301                	srli	a4,a4,0x20
    8000312c:	0c0007b7          	lui	a5,0xc000
    80003130:	97ba                	add	a5,a5,a4
    80003132:	fef43423          	sd	a5,-24(s0)
    80003136:	fe843583          	ld	a1,-24(s0)
    8000313a:	00002517          	auipc	a0,0x2
    8000313e:	61e50513          	addi	a0,a0,1566 # 80005758 <__rodata_start+0xed0>
    80003142:	d0bfd0ef          	jal	ra,80000e4c <log_debug>
    80003146:	fe843783          	ld	a5,-24(s0)
    8000314a:	439c                	lw	a5,0(a5)
    8000314c:	85be                	mv	a1,a5
    8000314e:	00002517          	auipc	a0,0x2
    80003152:	63250513          	addi	a0,a0,1586 # 80005780 <__rodata_start+0xef8>
    80003156:	cf7fd0ef          	jal	ra,80000e4c <log_debug>
    8000315a:	fe843783          	ld	a5,-24(s0)
    8000315e:	fdc42703          	lw	a4,-36(s0)
    80003162:	c398                	sw	a4,0(a5)
    80003164:	fe843783          	ld	a5,-24(s0)
    80003168:	439c                	lw	a5,0(a5)
    8000316a:	85be                	mv	a1,a5
    8000316c:	00002517          	auipc	a0,0x2
    80003170:	64c50513          	addi	a0,a0,1612 # 800057b8 <__rodata_start+0xf30>
    80003174:	cd9fd0ef          	jal	ra,80000e4c <log_debug>
    80003178:	00002517          	auipc	a0,0x2
    8000317c:	67050513          	addi	a0,a0,1648 # 800057e8 <__rodata_start+0xf60>
    80003180:	c5ffd0ef          	jal	ra,80000dde <log_trace>
    80003184:	0001                	nop
    80003186:	70a2                	ld	ra,40(sp)
    80003188:	7402                	ld	s0,32(sp)
    8000318a:	6145                	addi	sp,sp,48
    8000318c:	8082                	ret

000000008000318e <configure_interrupt_pin>:
    8000318e:	7179                	addi	sp,sp,-48
    80003190:	f406                	sd	ra,40(sp)
    80003192:	f022                	sd	s0,32(sp)
    80003194:	1800                	addi	s0,sp,48
    80003196:	87aa                	mv	a5,a0
    80003198:	fcf42e23          	sw	a5,-36(s0)
    8000319c:	00002517          	auipc	a0,0x2
    800031a0:	66c50513          	addi	a0,a0,1644 # 80005808 <__rodata_start+0xf80>
    800031a4:	c3bfd0ef          	jal	ra,80000dde <log_trace>
    800031a8:	000407b7          	lui	a5,0x40
    800031ac:	10078513          	addi	a0,a5,256 # 40100 <_tbss_end+0x40100>
    800031b0:	a63fd0ef          	jal	ra,80000c12 <read_word>
    800031b4:	87aa                	mv	a5,a0
    800031b6:	fef42623          	sw	a5,-20(s0)
    800031ba:	fec42783          	lw	a5,-20(s0)
    800031be:	85be                	mv	a1,a5
    800031c0:	00002517          	auipc	a0,0x2
    800031c4:	67050513          	addi	a0,a0,1648 # 80005830 <__rodata_start+0xfa8>
    800031c8:	c85fd0ef          	jal	ra,80000e4c <log_debug>
    800031cc:	fdc42783          	lw	a5,-36(s0)
    800031d0:	37e5                	addiw	a5,a5,-7
    800031d2:	2781                	sext.w	a5,a5
    800031d4:	4705                	li	a4,1
    800031d6:	00f717bb          	sllw	a5,a4,a5
    800031da:	2781                	sext.w	a5,a5
    800031dc:	fff7c793          	not	a5,a5
    800031e0:	2781                	sext.w	a5,a5
    800031e2:	0007871b          	sext.w	a4,a5
    800031e6:	fec42783          	lw	a5,-20(s0)
    800031ea:	8ff9                	and	a5,a5,a4
    800031ec:	2781                	sext.w	a5,a5
    800031ee:	1782                	slli	a5,a5,0x20
    800031f0:	9381                	srli	a5,a5,0x20
    800031f2:	85be                	mv	a1,a5
    800031f4:	000407b7          	lui	a5,0x40
    800031f8:	10078513          	addi	a0,a5,256 # 40100 <_tbss_end+0x40100>
    800031fc:	a4ffd0ef          	jal	ra,80000c4a <write_word>
    80003200:	000407b7          	lui	a5,0x40
    80003204:	10078513          	addi	a0,a5,256 # 40100 <_tbss_end+0x40100>
    80003208:	a0bfd0ef          	jal	ra,80000c12 <read_word>
    8000320c:	87aa                	mv	a5,a0
    8000320e:	85be                	mv	a1,a5
    80003210:	00002517          	auipc	a0,0x2
    80003214:	64850513          	addi	a0,a0,1608 # 80005858 <__rodata_start+0xfd0>
    80003218:	c35fd0ef          	jal	ra,80000e4c <log_debug>
    8000321c:	00002517          	auipc	a0,0x2
    80003220:	66c50513          	addi	a0,a0,1644 # 80005888 <__rodata_start+0x1000>
    80003224:	bbbfd0ef          	jal	ra,80000dde <log_trace>
    80003228:	0001                	nop
    8000322a:	70a2                	ld	ra,40(sp)
    8000322c:	7402                	ld	s0,32(sp)
    8000322e:	6145                	addi	sp,sp,48
    80003230:	8082                	ret

0000000080003232 <plic_init>:
    80003232:	1101                	addi	sp,sp,-32
    80003234:	ec06                	sd	ra,24(sp)
    80003236:	e822                	sd	s0,16(sp)
    80003238:	1000                	addi	s0,sp,32
    8000323a:	fe042623          	sw	zero,-20(s0)
    8000323e:	00002517          	auipc	a0,0x2
    80003242:	66a50513          	addi	a0,a0,1642 # 800058a8 <__rodata_start+0x1020>
    80003246:	b99fd0ef          	jal	ra,80000dde <log_trace>
    8000324a:	0000a797          	auipc	a5,0xa
    8000324e:	2c678793          	addi	a5,a5,710 # 8000d510 <mcause_interrupt_table>
    80003252:	00000717          	auipc	a4,0x0
    80003256:	ade70713          	addi	a4,a4,-1314 # 80002d30 <mach_plic_handler>
    8000325a:	efb8                	sd	a4,88(a5)
    8000325c:	45ad                	li	a1,11
    8000325e:	00002517          	auipc	a0,0x2
    80003262:	66250513          	addi	a0,a0,1634 # 800058c0 <__rodata_start+0x1038>
    80003266:	be7fd0ef          	jal	ra,80000e4c <log_debug>
    8000326a:	0000a797          	auipc	a5,0xa
    8000326e:	3ce78793          	addi	a5,a5,974 # 8000d638 <hart0_interrupt_matrix>
    80003272:	0007a423          	sw	zero,8(a5)
    80003276:	0000a797          	auipc	a5,0xa
    8000327a:	3c278793          	addi	a5,a5,962 # 8000d638 <hart0_interrupt_matrix>
    8000327e:	0007a023          	sw	zero,0(a5)
    80003282:	0000a797          	auipc	a5,0xa
    80003286:	3b678793          	addi	a5,a5,950 # 8000d638 <hart0_interrupt_matrix>
    8000328a:	0007a223          	sw	zero,4(a5)
    8000328e:	0000a797          	auipc	a5,0xa
    80003292:	3aa78793          	addi	a5,a5,938 # 8000d638 <hart0_interrupt_matrix>
    80003296:	0007a623          	sw	zero,12(a5)
    8000329a:	4785                	li	a5,1
    8000329c:	fef42623          	sw	a5,-20(s0)
    800032a0:	a8c5                	j	80003390 <plic_init+0x15e>
    800032a2:	0000a717          	auipc	a4,0xa
    800032a6:	39670713          	addi	a4,a4,918 # 8000d638 <hart0_interrupt_matrix>
    800032aa:	fec46783          	lwu	a5,-20(s0)
    800032ae:	0792                	slli	a5,a5,0x4
    800032b0:	97ba                	add	a5,a5,a4
    800032b2:	0007a423          	sw	zero,8(a5)
    800032b6:	0000a717          	auipc	a4,0xa
    800032ba:	38270713          	addi	a4,a4,898 # 8000d638 <hart0_interrupt_matrix>
    800032be:	fec46783          	lwu	a5,-20(s0)
    800032c2:	0792                	slli	a5,a5,0x4
    800032c4:	97ba                	add	a5,a5,a4
    800032c6:	fec42703          	lw	a4,-20(s0)
    800032ca:	c398                	sw	a4,0(a5)
    800032cc:	0000a717          	auipc	a4,0xa
    800032d0:	36c70713          	addi	a4,a4,876 # 8000d638 <hart0_interrupt_matrix>
    800032d4:	fec46783          	lwu	a5,-20(s0)
    800032d8:	0792                	slli	a5,a5,0x4
    800032da:	97ba                	add	a5,a5,a4
    800032dc:	4709                	li	a4,2
    800032de:	c3d8                	sw	a4,4(a5)
    800032e0:	0000a717          	auipc	a4,0xa
    800032e4:	35870713          	addi	a4,a4,856 # 8000d638 <hart0_interrupt_matrix>
    800032e8:	fec46783          	lwu	a5,-20(s0)
    800032ec:	0792                	slli	a5,a5,0x4
    800032ee:	97ba                	add	a5,a5,a4
    800032f0:	0007a623          	sw	zero,12(a5)
    800032f4:	00002517          	auipc	a0,0x2
    800032f8:	5fc50513          	addi	a0,a0,1532 # 800058f0 <__rodata_start+0x1068>
    800032fc:	b51fd0ef          	jal	ra,80000e4c <log_debug>
    80003300:	fec42783          	lw	a5,-20(s0)
    80003304:	853e                	mv	a0,a5
    80003306:	c79ff0ef          	jal	ra,80002f7e <interrupt_disable>
    8000330a:	0000a717          	auipc	a4,0xa
    8000330e:	4ee70713          	addi	a4,a4,1262 # 8000d7f8 <isr_table>
    80003312:	fec46783          	lwu	a5,-20(s0)
    80003316:	078e                	slli	a5,a5,0x3
    80003318:	97ba                	add	a5,a5,a4
    8000331a:	00000717          	auipc	a4,0x0
    8000331e:	afc70713          	addi	a4,a4,-1284 # 80002e16 <isr_default>
    80003322:	e398                	sd	a4,0(a5)
    80003324:	fec42783          	lw	a5,-20(s0)
    80003328:	85be                	mv	a1,a5
    8000332a:	4509                	li	a0,2
    8000332c:	dc9ff0ef          	jal	ra,800030f4 <set_interrupt_priority>
    80003330:	0000a717          	auipc	a4,0xa
    80003334:	30870713          	addi	a4,a4,776 # 8000d638 <hart0_interrupt_matrix>
    80003338:	fec46783          	lwu	a5,-20(s0)
    8000333c:	0792                	slli	a5,a5,0x4
    8000333e:	97ba                	add	a5,a5,a4
    80003340:	438c                	lw	a1,0(a5)
    80003342:	0000a717          	auipc	a4,0xa
    80003346:	2f670713          	addi	a4,a4,758 # 8000d638 <hart0_interrupt_matrix>
    8000334a:	fec46783          	lwu	a5,-20(s0)
    8000334e:	0792                	slli	a5,a5,0x4
    80003350:	97ba                	add	a5,a5,a4
    80003352:	4790                	lw	a2,8(a5)
    80003354:	0000a717          	auipc	a4,0xa
    80003358:	2e470713          	addi	a4,a4,740 # 8000d638 <hart0_interrupt_matrix>
    8000335c:	fec46783          	lwu	a5,-20(s0)
    80003360:	0792                	slli	a5,a5,0x4
    80003362:	97ba                	add	a5,a5,a4
    80003364:	43d4                	lw	a3,4(a5)
    80003366:	0000a717          	auipc	a4,0xa
    8000336a:	2d270713          	addi	a4,a4,722 # 8000d638 <hart0_interrupt_matrix>
    8000336e:	fec46783          	lwu	a5,-20(s0)
    80003372:	0792                	slli	a5,a5,0x4
    80003374:	97ba                	add	a5,a5,a4
    80003376:	47dc                	lw	a5,12(a5)
    80003378:	873e                	mv	a4,a5
    8000337a:	00002517          	auipc	a0,0x2
    8000337e:	5ae50513          	addi	a0,a0,1454 # 80005928 <__rodata_start+0x10a0>
    80003382:	acbfd0ef          	jal	ra,80000e4c <log_debug>
    80003386:	fec42783          	lw	a5,-20(s0)
    8000338a:	2785                	addiw	a5,a5,1
    8000338c:	fef42623          	sw	a5,-20(s0)
    80003390:	fec42783          	lw	a5,-20(s0)
    80003394:	0007871b          	sext.w	a4,a5
    80003398:	47ed                	li	a5,27
    8000339a:	f0e7f4e3          	bgeu	a5,a4,800032a2 <plic_init+0x70>
    8000339e:	4505                	li	a0,1
    800033a0:	cfbff0ef          	jal	ra,8000309a <set_interrupt_threshold>
    800033a4:	00002517          	auipc	a0,0x2
    800033a8:	61450513          	addi	a0,a0,1556 # 800059b8 <__rodata_start+0x1130>
    800033ac:	a33fd0ef          	jal	ra,80000dde <log_trace>
    800033b0:	0001                	nop
    800033b2:	60e2                	ld	ra,24(sp)
    800033b4:	6442                	ld	s0,16(sp)
    800033b6:	6105                	addi	sp,sp,32
    800033b8:	8082                	ret

00000000800033ba <configure_interrupt>:
    800033ba:	1101                	addi	sp,sp,-32
    800033bc:	ec06                	sd	ra,24(sp)
    800033be:	e822                	sd	s0,16(sp)
    800033c0:	1000                	addi	s0,sp,32
    800033c2:	87aa                	mv	a5,a0
    800033c4:	fef42623          	sw	a5,-20(s0)
    800033c8:	00002517          	auipc	a0,0x2
    800033cc:	60850513          	addi	a0,a0,1544 # 800059d0 <__rodata_start+0x1148>
    800033d0:	a0ffd0ef          	jal	ra,80000dde <log_trace>
    800033d4:	fec42783          	lw	a5,-20(s0)
    800033d8:	0007871b          	sext.w	a4,a5
    800033dc:	4799                	li	a5,6
    800033de:	00e7fe63          	bgeu	a5,a4,800033fa <configure_interrupt+0x40>
    800033e2:	fec42783          	lw	a5,-20(s0)
    800033e6:	0007871b          	sext.w	a4,a5
    800033ea:	47d5                	li	a5,21
    800033ec:	00e7e763          	bltu	a5,a4,800033fa <configure_interrupt+0x40>
    800033f0:	fec42783          	lw	a5,-20(s0)
    800033f4:	853e                	mv	a0,a5
    800033f6:	d99ff0ef          	jal	ra,8000318e <configure_interrupt_pin>
    800033fa:	fec42783          	lw	a5,-20(s0)
    800033fe:	853e                	mv	a0,a5
    80003400:	a9fff0ef          	jal	ra,80002e9e <interrupt_enable>
    80003404:	00002517          	auipc	a0,0x2
    80003408:	5ec50513          	addi	a0,a0,1516 # 800059f0 <__rodata_start+0x1168>
    8000340c:	9d3fd0ef          	jal	ra,80000dde <log_trace>
    80003410:	0001                	nop
    80003412:	60e2                	ld	ra,24(sp)
    80003414:	6442                	ld	s0,16(sp)
    80003416:	6105                	addi	sp,sp,32
    80003418:	8082                	ret

000000008000341a <set_pwm_period_register>:
    8000341a:	7179                	addi	sp,sp,-48
    8000341c:	f406                	sd	ra,40(sp)
    8000341e:	f022                	sd	s0,32(sp)
    80003420:	1800                	addi	s0,sp,48
    80003422:	87aa                	mv	a5,a0
    80003424:	872e                	mv	a4,a1
    80003426:	fcf42e23          	sw	a5,-36(s0)
    8000342a:	87ba                	mv	a5,a4
    8000342c:	fcf42c23          	sw	a5,-40(s0)
    80003430:	fd842783          	lw	a5,-40(s0)
    80003434:	0007871b          	sext.w	a4,a5
    80003438:	67c1                	lui	a5,0x10
    8000343a:	00f74d63          	blt	a4,a5,80003454 <set_pwm_period_register+0x3a>
    8000343e:	67c1                	lui	a5,0x10
    80003440:	fff78593          	addi	a1,a5,-1 # ffff <_tbss_end+0xffff>
    80003444:	00002517          	auipc	a0,0x2
    80003448:	5cc50513          	addi	a0,a0,1484 # 80005a10 <__rodata_start+0x1188>
    8000344c:	a6ffd0ef          	jal	ra,80000eba <log_error>
    80003450:	4781                	li	a5,0
    80003452:	a091                	j	80003496 <set_pwm_period_register+0x7c>
    80003454:	fdc42783          	lw	a5,-36(s0)
    80003458:	3007879b          	addiw	a5,a5,768
    8000345c:	2781                	sext.w	a5,a5
    8000345e:	0087979b          	slliw	a5,a5,0x8
    80003462:	2781                	sext.w	a5,a5
    80003464:	fef43423          	sd	a5,-24(s0)
    80003468:	fd842783          	lw	a5,-40(s0)
    8000346c:	0107971b          	slliw	a4,a5,0x10
    80003470:	4107571b          	sraiw	a4,a4,0x10
    80003474:	fe843783          	ld	a5,-24(s0)
    80003478:	00e79023          	sh	a4,0(a5)
    8000347c:	fd842703          	lw	a4,-40(s0)
    80003480:	fdc42783          	lw	a5,-36(s0)
    80003484:	863a                	mv	a2,a4
    80003486:	85be                	mv	a1,a5
    80003488:	00002517          	auipc	a0,0x2
    8000348c:	5c050513          	addi	a0,a0,1472 # 80005a48 <__rodata_start+0x11c0>
    80003490:	973fd0ef          	jal	ra,80000e02 <log_info>
    80003494:	4785                	li	a5,1
    80003496:	853e                	mv	a0,a5
    80003498:	70a2                	ld	ra,40(sp)
    8000349a:	7402                	ld	s0,32(sp)
    8000349c:	6145                	addi	sp,sp,48
    8000349e:	8082                	ret

00000000800034a0 <set_pwm_duty_register>:
    800034a0:	7179                	addi	sp,sp,-48
    800034a2:	f406                	sd	ra,40(sp)
    800034a4:	f022                	sd	s0,32(sp)
    800034a6:	1800                	addi	s0,sp,48
    800034a8:	87aa                	mv	a5,a0
    800034aa:	872e                	mv	a4,a1
    800034ac:	fcf42e23          	sw	a5,-36(s0)
    800034b0:	87ba                	mv	a5,a4
    800034b2:	fcf42c23          	sw	a5,-40(s0)
    800034b6:	fd842783          	lw	a5,-40(s0)
    800034ba:	0007871b          	sext.w	a4,a5
    800034be:	67c1                	lui	a5,0x10
    800034c0:	00f74d63          	blt	a4,a5,800034da <set_pwm_duty_register+0x3a>
    800034c4:	67c1                	lui	a5,0x10
    800034c6:	fff78593          	addi	a1,a5,-1 # ffff <_tbss_end+0xffff>
    800034ca:	00002517          	auipc	a0,0x2
    800034ce:	5ae50513          	addi	a0,a0,1454 # 80005a78 <__rodata_start+0x11f0>
    800034d2:	9e9fd0ef          	jal	ra,80000eba <log_error>
    800034d6:	4781                	li	a5,0
    800034d8:	a0a1                	j	80003520 <set_pwm_duty_register+0x80>
    800034da:	fdc42783          	lw	a5,-36(s0)
    800034de:	3007879b          	addiw	a5,a5,768
    800034e2:	2781                	sext.w	a5,a5
    800034e4:	0087979b          	slliw	a5,a5,0x8
    800034e8:	2781                	sext.w	a5,a5
    800034ea:	2791                	addiw	a5,a5,4
    800034ec:	2781                	sext.w	a5,a5
    800034ee:	fef43423          	sd	a5,-24(s0)
    800034f2:	fd842783          	lw	a5,-40(s0)
    800034f6:	0107971b          	slliw	a4,a5,0x10
    800034fa:	4107571b          	sraiw	a4,a4,0x10
    800034fe:	fe843783          	ld	a5,-24(s0)
    80003502:	00e79023          	sh	a4,0(a5)
    80003506:	fd842703          	lw	a4,-40(s0)
    8000350a:	fdc42783          	lw	a5,-36(s0)
    8000350e:	863a                	mv	a2,a4
    80003510:	85be                	mv	a1,a5
    80003512:	00002517          	auipc	a0,0x2
    80003516:	59650513          	addi	a0,a0,1430 # 80005aa8 <__rodata_start+0x1220>
    8000351a:	8e9fd0ef          	jal	ra,80000e02 <log_info>
    8000351e:	4785                	li	a5,1
    80003520:	853e                	mv	a0,a5
    80003522:	70a2                	ld	ra,40(sp)
    80003524:	7402                	ld	s0,32(sp)
    80003526:	6145                	addi	sp,sp,48
    80003528:	8082                	ret

000000008000352a <set_pwm_control_register>:
    8000352a:	7179                	addi	sp,sp,-48
    8000352c:	f406                	sd	ra,40(sp)
    8000352e:	f022                	sd	s0,32(sp)
    80003530:	1800                	addi	s0,sp,48
    80003532:	87aa                	mv	a5,a0
    80003534:	872e                	mv	a4,a1
    80003536:	fcf42e23          	sw	a5,-36(s0)
    8000353a:	87ba                	mv	a5,a4
    8000353c:	fcf42c23          	sw	a5,-40(s0)
    80003540:	fd842783          	lw	a5,-40(s0)
    80003544:	0007871b          	sext.w	a4,a5
    80003548:	0ff00793          	li	a5,255
    8000354c:	00e7dc63          	bge	a5,a4,80003564 <set_pwm_control_register+0x3a>
    80003550:	0ff00593          	li	a1,255
    80003554:	00002517          	auipc	a0,0x2
    80003558:	58450513          	addi	a0,a0,1412 # 80005ad8 <__rodata_start+0x1250>
    8000355c:	95ffd0ef          	jal	ra,80000eba <log_error>
    80003560:	4781                	li	a5,0
    80003562:	a091                	j	800035a6 <set_pwm_control_register+0x7c>
    80003564:	fdc42783          	lw	a5,-36(s0)
    80003568:	3007879b          	addiw	a5,a5,768
    8000356c:	2781                	sext.w	a5,a5
    8000356e:	0087979b          	slliw	a5,a5,0x8
    80003572:	2781                	sext.w	a5,a5
    80003574:	27a1                	addiw	a5,a5,8
    80003576:	2781                	sext.w	a5,a5
    80003578:	fef43423          	sd	a5,-24(s0)
    8000357c:	fd842783          	lw	a5,-40(s0)
    80003580:	0ff7f713          	andi	a4,a5,255
    80003584:	fe843783          	ld	a5,-24(s0)
    80003588:	00e78023          	sb	a4,0(a5)
    8000358c:	fd842703          	lw	a4,-40(s0)
    80003590:	fdc42783          	lw	a5,-36(s0)
    80003594:	863a                	mv	a2,a4
    80003596:	85be                	mv	a1,a5
    80003598:	00002517          	auipc	a0,0x2
    8000359c:	57850513          	addi	a0,a0,1400 # 80005b10 <__rodata_start+0x1288>
    800035a0:	863fd0ef          	jal	ra,80000e02 <log_info>
    800035a4:	4785                	li	a5,1
    800035a6:	853e                	mv	a0,a5
    800035a8:	70a2                	ld	ra,40(sp)
    800035aa:	7402                	ld	s0,32(sp)
    800035ac:	6145                	addi	sp,sp,48
    800035ae:	8082                	ret

00000000800035b0 <pwm_check_continuous_mode>:
    800035b0:	7179                	addi	sp,sp,-48
    800035b2:	f406                	sd	ra,40(sp)
    800035b4:	f022                	sd	s0,32(sp)
    800035b6:	1800                	addi	s0,sp,48
    800035b8:	87aa                	mv	a5,a0
    800035ba:	fcf42e23          	sw	a5,-36(s0)
    800035be:	fdc42783          	lw	a5,-36(s0)
    800035c2:	3007879b          	addiw	a5,a5,768
    800035c6:	2781                	sext.w	a5,a5
    800035c8:	0087979b          	slliw	a5,a5,0x8
    800035cc:	2781                	sext.w	a5,a5
    800035ce:	27a1                	addiw	a5,a5,8
    800035d0:	2781                	sext.w	a5,a5
    800035d2:	fef43423          	sd	a5,-24(s0)
    800035d6:	fe843783          	ld	a5,-24(s0)
    800035da:	0007c783          	lbu	a5,0(a5)
    800035de:	0ff7f793          	andi	a5,a5,255
    800035e2:	2781                	sext.w	a5,a5
    800035e4:	8ba1                	andi	a5,a5,8
    800035e6:	fef42223          	sw	a5,-28(s0)
    800035ea:	fe442783          	lw	a5,-28(s0)
    800035ee:	4037d79b          	sraiw	a5,a5,0x3
    800035f2:	2781                	sext.w	a5,a5
    800035f4:	85be                	mv	a1,a5
    800035f6:	00002517          	auipc	a0,0x2
    800035fa:	55250513          	addi	a0,a0,1362 # 80005b48 <__rodata_start+0x12c0>
    800035fe:	805fd0ef          	jal	ra,80000e02 <log_info>
    80003602:	fe442783          	lw	a5,-28(s0)
    80003606:	4037d79b          	sraiw	a5,a5,0x3
    8000360a:	2781                	sext.w	a5,a5
    8000360c:	873e                	mv	a4,a5
    8000360e:	4785                	li	a5,1
    80003610:	00f71463          	bne	a4,a5,80003618 <pwm_check_continuous_mode+0x68>
    80003614:	4785                	li	a5,1
    80003616:	a011                	j	8000361a <pwm_check_continuous_mode+0x6a>
    80003618:	4781                	li	a5,0
    8000361a:	853e                	mv	a0,a5
    8000361c:	70a2                	ld	ra,40(sp)
    8000361e:	7402                	ld	s0,32(sp)
    80003620:	6145                	addi	sp,sp,48
    80003622:	8082                	ret

0000000080003624 <set_pwm_clock_register>:
    80003624:	7179                	addi	sp,sp,-48
    80003626:	f406                	sd	ra,40(sp)
    80003628:	f022                	sd	s0,32(sp)
    8000362a:	1800                	addi	s0,sp,48
    8000362c:	87aa                	mv	a5,a0
    8000362e:	872e                	mv	a4,a1
    80003630:	fcf42e23          	sw	a5,-36(s0)
    80003634:	87ba                	mv	a5,a4
    80003636:	fcf42c23          	sw	a5,-40(s0)
    8000363a:	fd842783          	lw	a5,-40(s0)
    8000363e:	0007871b          	sext.w	a4,a5
    80003642:	67c1                	lui	a5,0x10
    80003644:	00f74d63          	blt	a4,a5,8000365e <set_pwm_clock_register+0x3a>
    80003648:	67c1                	lui	a5,0x10
    8000364a:	fff78593          	addi	a1,a5,-1 # ffff <_tbss_end+0xffff>
    8000364e:	00002517          	auipc	a0,0x2
    80003652:	52250513          	addi	a0,a0,1314 # 80005b70 <__rodata_start+0x12e8>
    80003656:	865fd0ef          	jal	ra,80000eba <log_error>
    8000365a:	4781                	li	a5,0
    8000365c:	a805                	j	8000368c <set_pwm_clock_register+0x68>
    8000365e:	fdc42783          	lw	a5,-36(s0)
    80003662:	3007879b          	addiw	a5,a5,768
    80003666:	2781                	sext.w	a5,a5
    80003668:	0087979b          	slliw	a5,a5,0x8
    8000366c:	2781                	sext.w	a5,a5
    8000366e:	27b1                	addiw	a5,a5,12
    80003670:	2781                	sext.w	a5,a5
    80003672:	fef43423          	sd	a5,-24(s0)
    80003676:	fd842783          	lw	a5,-40(s0)
    8000367a:	0107971b          	slliw	a4,a5,0x10
    8000367e:	4107571b          	sraiw	a4,a4,0x10
    80003682:	fe843783          	ld	a5,-24(s0)
    80003686:	00e79023          	sh	a4,0(a5)
    8000368a:	4785                	li	a5,1
    8000368c:	853e                	mv	a0,a5
    8000368e:	70a2                	ld	ra,40(sp)
    80003690:	7402                	ld	s0,32(sp)
    80003692:	6145                	addi	sp,sp,48
    80003694:	8082                	ret

0000000080003696 <pwm_clear_registers>:
    80003696:	1101                	addi	sp,sp,-32
    80003698:	ec06                	sd	ra,24(sp)
    8000369a:	e822                	sd	s0,16(sp)
    8000369c:	1000                	addi	s0,sp,32
    8000369e:	87aa                	mv	a5,a0
    800036a0:	fef42623          	sw	a5,-20(s0)
    800036a4:	fec42783          	lw	a5,-20(s0)
    800036a8:	4581                	li	a1,0
    800036aa:	853e                	mv	a0,a5
    800036ac:	d6fff0ef          	jal	ra,8000341a <set_pwm_period_register>
    800036b0:	fec42783          	lw	a5,-20(s0)
    800036b4:	4581                	li	a1,0
    800036b6:	853e                	mv	a0,a5
    800036b8:	de9ff0ef          	jal	ra,800034a0 <set_pwm_duty_register>
    800036bc:	fec42783          	lw	a5,-20(s0)
    800036c0:	4581                	li	a1,0
    800036c2:	853e                	mv	a0,a5
    800036c4:	e67ff0ef          	jal	ra,8000352a <set_pwm_control_register>
    800036c8:	fec42783          	lw	a5,-20(s0)
    800036cc:	4581                	li	a1,0
    800036ce:	853e                	mv	a0,a5
    800036d0:	f55ff0ef          	jal	ra,80003624 <set_pwm_clock_register>
    800036d4:	fec42783          	lw	a5,-20(s0)
    800036d8:	85be                	mv	a1,a5
    800036da:	00002517          	auipc	a0,0x2
    800036de:	4ce50513          	addi	a0,a0,1230 # 80005ba8 <__rodata_start+0x1320>
    800036e2:	f20fd0ef          	jal	ra,80000e02 <log_info>
    800036e6:	0001                	nop
    800036e8:	60e2                	ld	ra,24(sp)
    800036ea:	6442                	ld	s0,16(sp)
    800036ec:	6105                	addi	sp,sp,32
    800036ee:	8082                	ret

00000000800036f0 <pwm_init>:
    800036f0:	1101                	addi	sp,sp,-32
    800036f2:	ec06                	sd	ra,24(sp)
    800036f4:	e822                	sd	s0,16(sp)
    800036f6:	1000                	addi	s0,sp,32
    800036f8:	fe042623          	sw	zero,-20(s0)
    800036fc:	a819                	j	80003712 <pwm_init+0x22>
    800036fe:	fec42783          	lw	a5,-20(s0)
    80003702:	853e                	mv	a0,a5
    80003704:	f93ff0ef          	jal	ra,80003696 <pwm_clear_registers>
    80003708:	fec42783          	lw	a5,-20(s0)
    8000370c:	2785                	addiw	a5,a5,1
    8000370e:	fef42623          	sw	a5,-20(s0)
    80003712:	fec42783          	lw	a5,-20(s0)
    80003716:	0007871b          	sext.w	a4,a5
    8000371a:	4791                	li	a5,4
    8000371c:	fee7d1e3          	bge	a5,a4,800036fe <pwm_init+0xe>
    80003720:	00002517          	auipc	a0,0x2
    80003724:	4b850513          	addi	a0,a0,1208 # 80005bd8 <__rodata_start+0x1350>
    80003728:	edafd0ef          	jal	ra,80000e02 <log_info>
    8000372c:	0001                	nop
    8000372e:	60e2                	ld	ra,24(sp)
    80003730:	6442                	ld	s0,16(sp)
    80003732:	6105                	addi	sp,sp,32
    80003734:	8082                	ret

0000000080003736 <configure_control_register_mode>:
    80003736:	7179                	addi	sp,sp,-48
    80003738:	f406                	sd	ra,40(sp)
    8000373a:	f022                	sd	s0,32(sp)
    8000373c:	1800                	addi	s0,sp,48
    8000373e:	87aa                	mv	a5,a0
    80003740:	fcf42e23          	sw	a5,-36(s0)
    80003744:	fe042623          	sw	zero,-20(s0)
    80003748:	fdc42783          	lw	a5,-36(s0)
    8000374c:	2781                	sext.w	a5,a5
    8000374e:	e79d                	bnez	a5,8000377c <configure_control_register_mode+0x46>
    80003750:	00002517          	auipc	a0,0x2
    80003754:	4b850513          	addi	a0,a0,1208 # 80005c08 <__rodata_start+0x1380>
    80003758:	eaafd0ef          	jal	ra,80000e02 <log_info>
    8000375c:	fec42783          	lw	a5,-20(s0)
    80003760:	2789                	addiw	a5,a5,2
    80003762:	fef42623          	sw	a5,-20(s0)
    80003766:	fec42783          	lw	a5,-20(s0)
    8000376a:	2791                	addiw	a5,a5,4
    8000376c:	fef42623          	sw	a5,-20(s0)
    80003770:	fec42783          	lw	a5,-20(s0)
    80003774:	27c1                	addiw	a5,a5,16
    80003776:	fef42623          	sw	a5,-20(s0)
    8000377a:	a899                	j	800037d0 <configure_control_register_mode+0x9a>
    8000377c:	fdc42783          	lw	a5,-36(s0)
    80003780:	0007871b          	sext.w	a4,a5
    80003784:	4785                	li	a5,1
    80003786:	00f71e63          	bne	a4,a5,800037a2 <configure_control_register_mode+0x6c>
    8000378a:	00002517          	auipc	a0,0x2
    8000378e:	4a650513          	addi	a0,a0,1190 # 80005c30 <__rodata_start+0x13a8>
    80003792:	e70fd0ef          	jal	ra,80000e02 <log_info>
    80003796:	fec42783          	lw	a5,-20(s0)
    8000379a:	2791                	addiw	a5,a5,4
    8000379c:	fef42623          	sw	a5,-20(s0)
    800037a0:	a805                	j	800037d0 <configure_control_register_mode+0x9a>
    800037a2:	fdc42783          	lw	a5,-36(s0)
    800037a6:	0007871b          	sext.w	a4,a5
    800037aa:	4789                	li	a5,2
    800037ac:	02f71263          	bne	a4,a5,800037d0 <configure_control_register_mode+0x9a>
    800037b0:	00002517          	auipc	a0,0x2
    800037b4:	4b050513          	addi	a0,a0,1200 # 80005c60 <__rodata_start+0x13d8>
    800037b8:	e4afd0ef          	jal	ra,80000e02 <log_info>
    800037bc:	fec42783          	lw	a5,-20(s0)
    800037c0:	2791                	addiw	a5,a5,4
    800037c2:	fef42623          	sw	a5,-20(s0)
    800037c6:	fec42783          	lw	a5,-20(s0)
    800037ca:	27a1                	addiw	a5,a5,8
    800037cc:	fef42623          	sw	a5,-20(s0)
    800037d0:	fec42783          	lw	a5,-20(s0)
    800037d4:	853e                	mv	a0,a5
    800037d6:	70a2                	ld	ra,40(sp)
    800037d8:	7402                	ld	s0,32(sp)
    800037da:	6145                	addi	sp,sp,48
    800037dc:	8082                	ret

00000000800037de <pwm_start>:
    800037de:	7179                	addi	sp,sp,-48
    800037e0:	f406                	sd	ra,40(sp)
    800037e2:	f022                	sd	s0,32(sp)
    800037e4:	1800                	addi	s0,sp,48
    800037e6:	87aa                	mv	a5,a0
    800037e8:	872e                	mv	a4,a1
    800037ea:	fcf42e23          	sw	a5,-36(s0)
    800037ee:	87ba                	mv	a5,a4
    800037f0:	fcf42c23          	sw	a5,-40(s0)
    800037f4:	fd842783          	lw	a5,-40(s0)
    800037f8:	853e                	mv	a0,a5
    800037fa:	f3dff0ef          	jal	ra,80003736 <configure_control_register_mode>
    800037fe:	87aa                	mv	a5,a0
    80003800:	fef42623          	sw	a5,-20(s0)
    80003804:	fec42703          	lw	a4,-20(s0)
    80003808:	fdc42783          	lw	a5,-36(s0)
    8000380c:	85ba                	mv	a1,a4
    8000380e:	853e                	mv	a0,a5
    80003810:	d1bff0ef          	jal	ra,8000352a <set_pwm_control_register>
    80003814:	87aa                	mv	a5,a0
    80003816:	cb91                	beqz	a5,8000382a <pwm_start+0x4c>
    80003818:	fdc42783          	lw	a5,-36(s0)
    8000381c:	85be                	mv	a1,a5
    8000381e:	00002517          	auipc	a0,0x2
    80003822:	47a50513          	addi	a0,a0,1146 # 80005c98 <__rodata_start+0x1410>
    80003826:	ddcfd0ef          	jal	ra,80000e02 <log_info>
    8000382a:	fec42703          	lw	a4,-20(s0)
    8000382e:	fdc42783          	lw	a5,-36(s0)
    80003832:	85ba                	mv	a1,a4
    80003834:	853e                	mv	a0,a5
    80003836:	cf5ff0ef          	jal	ra,8000352a <set_pwm_control_register>
    8000383a:	87aa                	mv	a5,a0
    8000383c:	eb91                	bnez	a5,80003850 <pwm_start+0x72>
    8000383e:	fdc42783          	lw	a5,-36(s0)
    80003842:	85be                	mv	a1,a5
    80003844:	00002517          	auipc	a0,0x2
    80003848:	47c50513          	addi	a0,a0,1148 # 80005cc0 <__rodata_start+0x1438>
    8000384c:	e6efd0ef          	jal	ra,80000eba <log_error>
    80003850:	0001                	nop
    80003852:	70a2                	ld	ra,40(sp)
    80003854:	7402                	ld	s0,32(sp)
    80003856:	6145                	addi	sp,sp,48
    80003858:	8082                	ret

000000008000385a <pwm_use_external_clock>:
    8000385a:	7179                	addi	sp,sp,-48
    8000385c:	f422                	sd	s0,40(sp)
    8000385e:	1800                	addi	s0,sp,48
    80003860:	87aa                	mv	a5,a0
    80003862:	872e                	mv	a4,a1
    80003864:	fcf42e23          	sw	a5,-36(s0)
    80003868:	87ba                	mv	a5,a4
    8000386a:	fcf40da3          	sb	a5,-37(s0)
    8000386e:	fdc42783          	lw	a5,-36(s0)
    80003872:	3007879b          	addiw	a5,a5,768
    80003876:	2781                	sext.w	a5,a5
    80003878:	0087979b          	slliw	a5,a5,0x8
    8000387c:	2781                	sext.w	a5,a5
    8000387e:	27a1                	addiw	a5,a5,8
    80003880:	2781                	sext.w	a5,a5
    80003882:	fef43423          	sd	a5,-24(s0)
    80003886:	fdb44783          	lbu	a5,-37(s0)
    8000388a:	0ff7f793          	andi	a5,a5,255
    8000388e:	c799                	beqz	a5,8000389c <pwm_use_external_clock+0x42>
    80003890:	fe843783          	ld	a5,-24(s0)
    80003894:	0785                	addi	a5,a5,1
    80003896:	fef43423          	sd	a5,-24(s0)
    8000389a:	a809                	j	800038ac <pwm_use_external_clock+0x52>
    8000389c:	fe843783          	ld	a5,-24(s0)
    800038a0:	c791                	beqz	a5,800038ac <pwm_use_external_clock+0x52>
    800038a2:	fe843783          	ld	a5,-24(s0)
    800038a6:	17fd                	addi	a5,a5,-1
    800038a8:	fef43423          	sd	a5,-24(s0)
    800038ac:	0001                	nop
    800038ae:	7422                	ld	s0,40(sp)
    800038b0:	6145                	addi	sp,sp,48
    800038b2:	8082                	ret

00000000800038b4 <pwm_set_clock>:
    800038b4:	1101                	addi	sp,sp,-32
    800038b6:	ec06                	sd	ra,24(sp)
    800038b8:	e822                	sd	s0,16(sp)
    800038ba:	1000                	addi	s0,sp,32
    800038bc:	87aa                	mv	a5,a0
    800038be:	872e                	mv	a4,a1
    800038c0:	fef42623          	sw	a5,-20(s0)
    800038c4:	87ba                	mv	a5,a4
    800038c6:	fef42423          	sw	a5,-24(s0)
    800038ca:	fe842703          	lw	a4,-24(s0)
    800038ce:	fec42783          	lw	a5,-20(s0)
    800038d2:	85ba                	mv	a1,a4
    800038d4:	853e                	mv	a0,a5
    800038d6:	d4fff0ef          	jal	ra,80003624 <set_pwm_clock_register>
    800038da:	87aa                	mv	a5,a0
    800038dc:	e799                	bnez	a5,800038ea <pwm_set_clock+0x36>
    800038de:	00002517          	auipc	a0,0x2
    800038e2:	40a50513          	addi	a0,a0,1034 # 80005ce8 <__rodata_start+0x1460>
    800038e6:	dd4fd0ef          	jal	ra,80000eba <log_error>
    800038ea:	0001                	nop
    800038ec:	60e2                	ld	ra,24(sp)
    800038ee:	6442                	ld	s0,16(sp)
    800038f0:	6105                	addi	sp,sp,32
    800038f2:	8082                	ret

00000000800038f4 <pwm_set_duty_cycle>:
    800038f4:	1101                	addi	sp,sp,-32
    800038f6:	ec06                	sd	ra,24(sp)
    800038f8:	e822                	sd	s0,16(sp)
    800038fa:	1000                	addi	s0,sp,32
    800038fc:	87aa                	mv	a5,a0
    800038fe:	872e                	mv	a4,a1
    80003900:	fef42623          	sw	a5,-20(s0)
    80003904:	87ba                	mv	a5,a4
    80003906:	fef42423          	sw	a5,-24(s0)
    8000390a:	fe842703          	lw	a4,-24(s0)
    8000390e:	fec42783          	lw	a5,-20(s0)
    80003912:	85ba                	mv	a1,a4
    80003914:	853e                	mv	a0,a5
    80003916:	b8bff0ef          	jal	ra,800034a0 <set_pwm_duty_register>
    8000391a:	87aa                	mv	a5,a0
    8000391c:	e799                	bnez	a5,8000392a <pwm_set_duty_cycle+0x36>
    8000391e:	00002517          	auipc	a0,0x2
    80003922:	3f250513          	addi	a0,a0,1010 # 80005d10 <__rodata_start+0x1488>
    80003926:	d94fd0ef          	jal	ra,80000eba <log_error>
    8000392a:	0001                	nop
    8000392c:	60e2                	ld	ra,24(sp)
    8000392e:	6442                	ld	s0,16(sp)
    80003930:	6105                	addi	sp,sp,32
    80003932:	8082                	ret

0000000080003934 <pwm_set_periodic_cycle>:
    80003934:	1101                	addi	sp,sp,-32
    80003936:	ec06                	sd	ra,24(sp)
    80003938:	e822                	sd	s0,16(sp)
    8000393a:	1000                	addi	s0,sp,32
    8000393c:	87aa                	mv	a5,a0
    8000393e:	872e                	mv	a4,a1
    80003940:	fef42623          	sw	a5,-20(s0)
    80003944:	87ba                	mv	a5,a4
    80003946:	fef42423          	sw	a5,-24(s0)
    8000394a:	fe842703          	lw	a4,-24(s0)
    8000394e:	fec42783          	lw	a5,-20(s0)
    80003952:	85ba                	mv	a1,a4
    80003954:	853e                	mv	a0,a5
    80003956:	ac5ff0ef          	jal	ra,8000341a <set_pwm_period_register>
    8000395a:	87aa                	mv	a5,a0
    8000395c:	e799                	bnez	a5,8000396a <pwm_set_periodic_cycle+0x36>
    8000395e:	00002517          	auipc	a0,0x2
    80003962:	3da50513          	addi	a0,a0,986 # 80005d38 <__rodata_start+0x14b0>
